Component: Arm Compiler for Embedded 6.19 Tool: armlink [5e73cb00]

==============================================================================

Section Cross References

    ili9341.o(.ARM.exidx.text.SysTick_Init) refers to ili9341.o(.text.SysTick_Init) for [Anonymous Symbol]
    ili9341.o(.ARM.exidx.text.delayMS) refers to ili9341.o(.text.delayMS) for [Anonymous Symbol]
    ili9341.o(.ARM.exidx.text.delayMicroS) refers to ili9341.o(.text.delayMicroS) for [Anonymous Symbol]
    ili9341.o(.text.Draw_String_BG) refers to strlen.o(.text) for strlen
    ili9341.o(.text.Draw_String_BG) refers to ili9341.o(.text.Draw_Char_BG) for Draw_Char_BG
    ili9341.o(.text.Draw_String_BG) refers to ili9341.o(.data.ILI_TFTwidth) for ILI_TFTwidth
    ili9341.o(.ARM.exidx.text.Draw_String_BG) refers to ili9341.o(.text.Draw_String_BG) for [Anonymous Symbol]
    ili9341.o(.text.Draw_Char_BG) refers to ili9341.o(.text.Draw_Pixel) for Draw_Pixel
    ili9341.o(.ARM.exidx.text.Draw_Char_BG) refers to ili9341.o(.text.Draw_Char_BG) for [Anonymous Symbol]
    ili9341.o(.text.Draw_String_NoBG) refers to strlen.o(.text) for strlen
    ili9341.o(.text.Draw_String_NoBG) refers to ili9341.o(.text.Draw_Char_NoBG) for Draw_Char_NoBG
    ili9341.o(.text.Draw_String_NoBG) refers to ili9341.o(.data.ILI_TFTwidth) for ILI_TFTwidth
    ili9341.o(.ARM.exidx.text.Draw_String_NoBG) refers to ili9341.o(.text.Draw_String_NoBG) for [Anonymous Symbol]
    ili9341.o(.text.Draw_Char_NoBG) refers to ili9341.o(.text.Draw_Pixel) for Draw_Pixel
    ili9341.o(.ARM.exidx.text.Draw_Char_NoBG) refers to ili9341.o(.text.Draw_Char_NoBG) for [Anonymous Symbol]
    ili9341.o(.text.Draw_Pixel) refers to ili9341.o(.text.Set_Address_Window) for Set_Address_Window
    ili9341.o(.text.Draw_Pixel) refers to ili9341.o(.text.ILI_Push_16Bit) for ILI_Push_16Bit
    ili9341.o(.ARM.exidx.text.Draw_Pixel) refers to ili9341.o(.text.Draw_Pixel) for [Anonymous Symbol]
    ili9341.o(.text.Draw_Bitmap) refers to ili9341.o(.text.Set_Address_Window) for Set_Address_Window
    ili9341.o(.text.Draw_Bitmap) refers to ili9341.o(.text.ILI_8Bit_Data) for ILI_8Bit_Data
    ili9341.o(.ARM.exidx.text.Draw_Bitmap) refers to ili9341.o(.text.Draw_Bitmap) for [Anonymous Symbol]
    ili9341.o(.text.Set_Address_Window) refers to ili9341.o(.text.ILI_8Bit_Command) for ILI_8Bit_Command
    ili9341.o(.text.Set_Address_Window) refers to ili9341.o(.text.ILI_Push_16Bit) for ILI_Push_16Bit
    ili9341.o(.ARM.exidx.text.Set_Address_Window) refers to ili9341.o(.text.Set_Address_Window) for [Anonymous Symbol]
    ili9341.o(.text.ILI_8Bit_Data) refers to spi.o(.text.SPI_Transmit) for SPI_Transmit
    ili9341.o(.ARM.exidx.text.ILI_8Bit_Data) refers to ili9341.o(.text.ILI_8Bit_Data) for [Anonymous Symbol]
    ili9341.o(.text.Fill_Screen) refers to ili9341.o(.data.ILI_TFTwidth) for ILI_TFTwidth
    ili9341.o(.text.Fill_Screen) refers to ili9341.o(.data.ILI_TFTheight) for ILI_TFTheight
    ili9341.o(.text.Fill_Screen) refers to ili9341.o(.text.Set_Address_Window) for Set_Address_Window
    ili9341.o(.text.Fill_Screen) refers to ili9341.o(.text.Fill_Color) for Fill_Color
    ili9341.o(.ARM.exidx.text.Fill_Screen) refers to ili9341.o(.text.Fill_Screen) for [Anonymous Symbol]
    ili9341.o(.text.Fill_Color) refers to ili9341.o(.text.ILI_Push_16Bit) for ILI_Push_16Bit
    ili9341.o(.text.Fill_Color) refers to ili9341.o(.text.ILI_8Bit_Data) for ILI_8Bit_Data
    ili9341.o(.ARM.exidx.text.Fill_Color) refers to ili9341.o(.text.Fill_Color) for [Anonymous Symbol]
    ili9341.o(.text.Draw_Line) refers to abs.o(.text) for abs
    ili9341.o(.text.Draw_Line) refers to ili9341.o(.text.Set_Address_Window) for Set_Address_Window
    ili9341.o(.text.Draw_Line) refers to ili9341.o(.text.ILI_Push_16Bit) for ILI_Push_16Bit
    ili9341.o(.ARM.exidx.text.Draw_Line) refers to ili9341.o(.text.Draw_Line) for [Anonymous Symbol]
    ili9341.o(.text.ILI_Push_16Bit) refers to ili9341.o(.text.ILI_8Bit_Data) for ILI_8Bit_Data
    ili9341.o(.ARM.exidx.text.ILI_Push_16Bit) refers to ili9341.o(.text.ILI_Push_16Bit) for [Anonymous Symbol]
    ili9341.o(.text.Draw_VLine) refers to ili9341.o(.text.Set_Address_Window) for Set_Address_Window
    ili9341.o(.text.Draw_VLine) refers to abs.o(.text) for abs
    ili9341.o(.text.Draw_VLine) refers to ili9341.o(.text.Fill_Color) for Fill_Color
    ili9341.o(.ARM.exidx.text.Draw_VLine) refers to ili9341.o(.text.Draw_VLine) for [Anonymous Symbol]
    ili9341.o(.text.Draw_HLine) refers to ili9341.o(.text.Set_Address_Window) for Set_Address_Window
    ili9341.o(.text.Draw_HLine) refers to abs.o(.text) for abs
    ili9341.o(.text.Draw_HLine) refers to ili9341.o(.text.Fill_Color) for Fill_Color
    ili9341.o(.ARM.exidx.text.Draw_HLine) refers to ili9341.o(.text.Draw_HLine) for [Anonymous Symbol]
    ili9341.o(.text.Invert_Display) refers to ili9341.o(.bss.Invert_Display.inv_flag) for Invert_Display.inv_flag
    ili9341.o(.text.Invert_Display) refers to ili9341.o(.text.ILI_8Bit_Command) for ILI_8Bit_Command
    ili9341.o(.ARM.exidx.text.Invert_Display) refers to ili9341.o(.text.Invert_Display) for [Anonymous Symbol]
    ili9341.o(.text.ILI_8Bit_Command) refers to spi.o(.text.SPI_Transmit) for SPI_Transmit
    ili9341.o(.ARM.exidx.text.ILI_8Bit_Command) refers to ili9341.o(.text.ILI_8Bit_Command) for [Anonymous Symbol]
    ili9341.o(.text.Rotate_Display) refers to ili9341.o(.text.ILI_8Bit_Command) for ILI_8Bit_Command
    ili9341.o(.text.Rotate_Display) refers to ili9341.o(.text.ILI_8Bit_Data) for ILI_8Bit_Data
    ili9341.o(.text.Rotate_Display) refers to ili9341.o(.data.ILI_TFTheight) for ILI_TFTheight
    ili9341.o(.text.Rotate_Display) refers to ili9341.o(.data.ILI_TFTwidth) for ILI_TFTwidth
    ili9341.o(.text.Rotate_Display) refers to ili9341.o(.bss.ILI_Orientation) for ILI_Orientation
    ili9341.o(.ARM.exidx.text.Rotate_Display) refers to ili9341.o(.text.Rotate_Display) for [Anonymous Symbol]
    ili9341.o(.text.Display_Init) refers to ili9341.o(.text.SysTick_Init) for SysTick_Init
    ili9341.o(.text.Display_Init) refers to ili9341.o(.text.GPIO_PinMode_Setup) for GPIO_PinMode_Setup
    ili9341.o(.text.Display_Init) refers to spi.o(.text.SPI_Init) for SPI_Init
    ili9341.o(.text.Display_Init) refers to ili9341.o(.text.delayMS) for delayMS
    ili9341.o(.text.Display_Init) refers to ili9341.o(.text.ILI_8Bit_Command) for ILI_8Bit_Command
    ili9341.o(.text.Display_Init) refers to ili9341.o(.text.delayMicroS) for delayMicroS
    ili9341.o(.text.Display_Init) refers to ili9341.o(.text.ILI_8Bit_Data) for ILI_8Bit_Data
    ili9341.o(.text.Display_Init) refers to ili9341.o(.text.Fill_Screen) for Fill_Screen
    ili9341.o(.text.Display_Init) refers to ili9341.o(.text.Rotate_Display) for Rotate_Display
    ili9341.o(.ARM.exidx.text.Display_Init) refers to ili9341.o(.text.Display_Init) for [Anonymous Symbol]
    ili9341.o(.ARM.exidx.text.GPIO_PinMode_Setup) refers to ili9341.o(.text.GPIO_PinMode_Setup) for [Anonymous Symbol]
    ili9341.o(.text.Fill_Rect) refers to ili9341.o(.data.ILI_TFTwidth) for ILI_TFTwidth
    ili9341.o(.text.Fill_Rect) refers to ili9341.o(.data.ILI_TFTheight) for ILI_TFTheight
    ili9341.o(.text.Fill_Rect) refers to ili9341.o(.text.Set_Address_Window) for Set_Address_Window
    ili9341.o(.text.Fill_Rect) refers to ili9341.o(.text.Fill_Color) for Fill_Color
    ili9341.o(.ARM.exidx.text.Fill_Rect) refers to ili9341.o(.text.Fill_Rect) for [Anonymous Symbol]
    ili9341.o(.text.doFontTest) refers to ili9341.o(.text.Fill_Screen) for Fill_Screen
    ili9341.o(.text.doFontTest) refers to ili9341.o(.rodata.str1.1) for .L.str
    ili9341.o(.text.doFontTest) refers to ili9341.o(.text.Draw_String_NoBG) for Draw_String_NoBG
    ili9341.o(.ARM.exidx.text.doFontTest) refers to ili9341.o(.text.doFontTest) for [Anonymous Symbol]
    rccconfig.o(.ARM.exidx.text.SysClockConfig) refers to rccconfig.o(.text.SysClockConfig) for [Anonymous Symbol]
    spi.o(.text.SPI_Init) refers to spi.o(.text.SPI_GPIO) for SPI_GPIO
    spi.o(.text.SPI_Init) refers to spi.o(.text.SPI_Enable) for SPI_Enable
    spi.o(.ARM.exidx.text.SPI_Init) refers to spi.o(.text.SPI_Init) for [Anonymous Symbol]
    spi.o(.text.SPI_GPIO) refers to spi.o(.text.CS_Low) for CS_Low
    spi.o(.ARM.exidx.text.SPI_GPIO) refers to spi.o(.text.SPI_GPIO) for [Anonymous Symbol]
    spi.o(.ARM.exidx.text.SPI_Enable) refers to spi.o(.text.SPI_Enable) for [Anonymous Symbol]
    spi.o(.ARM.exidx.text.CS_Low) refers to spi.o(.text.CS_Low) for [Anonymous Symbol]
    spi.o(.ARM.exidx.text.SPI_Disable) refers to spi.o(.text.SPI_Disable) for [Anonymous Symbol]
    spi.o(.ARM.exidx.text.SPI_Transmit) refers to spi.o(.text.SPI_Transmit) for [Anonymous Symbol]
    spi.o(.ARM.exidx.text.CS_High) refers to spi.o(.text.CS_High) for [Anonymous Symbol]
    testmain.o(.text.main) refers to hall.o(.text.hallEffect_pinInit) for hallEffect_pinInit
    testmain.o(.text.main) refers to ili9341.o(.text.Display_Init) for Display_Init
    testmain.o(.text.main) refers to i2c.o(.text.I2C_init) for I2C_init
    testmain.o(.text.main) refers to rotary_encoder.o(.text.Encoder_init) for Encoder_init
    testmain.o(.text.main) refers to stepper.o(.text.stepper_init) for stepper_init
    testmain.o(.text.main) refers to servo.o(.text.TIM1_setup) for TIM1_setup
    testmain.o(.text.main) refers to health_bar.o(.text.tim5_init) for tim5_init
    testmain.o(.text.main) refers to servo.o(.text.Timer6_Init) for Timer6_Init
    testmain.o(.text.main) refers to piezo.o(.text.Timer7_Init) for Timer7_Init
    testmain.o(.text.main) refers to health_bar.o(.text.init_ShiftRegister) for init_ShiftRegister
    testmain.o(.text.main) refers to health_bar.o(.text.HealthCurrent) for HealthCurrent
    testmain.o(.text.main) refers to sevenseg.o(.text.Init_seq) for Init_seq
    testmain.o(.text.main) refers to adc.o(.text.adc_init) for adc_init
    testmain.o(.text.main) refers to testmain.o(.text.WDT_init) for WDT_init
    testmain.o(.text.main) refers to sonar.o(.text.sonar_gpio_init) for sonar_gpio_init
    testmain.o(.text.main) refers to testmain.o(.data.menu) for menu
    testmain.o(.text.main) refers to testmain.o(.bss.health_ptr) for health_ptr
    testmain.o(.text.main) refers to health_bar.o(.data.health) for health
    testmain.o(.text.main) refers to ili9341.o(.text.delayMS) for delayMS
    testmain.o(.text.main) refers to testmain.o(.bss.CNT_Old) for CNT_Old
    testmain.o(.text.main) refers to testmain.o(.bss.CNT_New) for CNT_New
    testmain.o(.text.main) refers to testmain.o(.bss.refresh_WDT) for refresh_WDT
    testmain.o(.text.main) refers to testmain.o(.text.WDT_reset) for WDT_reset
    testmain.o(.text.main) refers to testmain.o(.data.state) for state
    testmain.o(.text.main) refers to testmain.o(.bss.lightLvl) for lightLvl
    testmain.o(.text.main) refers to testmain.o(.bss.petFlag) for petFlag
    testmain.o(.text.main) refers to piezo.o(.text.Play_Tone_2) for Play_Tone_2
    testmain.o(.text.main) refers to servo.o(.text.Eyelid_Move_To) for Eyelid_Move_To
    testmain.o(.text.main) refers to testmain.o(.data.Expression_Transition) for Expression_Transition
    testmain.o(.text.main) refers to piezo.o(.text.Play_Tone_1) for Play_Tone_1
    testmain.o(.text.main) refers to piezo.o(.text.millis) for millis
    testmain.o(.text.main) refers to testmain.o(.bss.Time_Old) for Time_Old
    testmain.o(.text.main) refers to piezo.o(.text.Play_Tone_3) for Play_Tone_3
    testmain.o(.text.main) refers to testmain.o(.bss.Time_New) for Time_New
    testmain.o(.text.main) refers to piezo.o(.text.Play_Tone_4) for Play_Tone_4
    testmain.o(.text.main) refers to testmain.o(.text.MENU_SCREENS) for MENU_SCREENS
    testmain.o(.text.main) refers to sonar.o(.text.dist) for dist
    testmain.o(.text.main) refers to dfix.o(x$fpl$dfix) for __aeabi_d2iz
    testmain.o(.text.main) refers to abs.o(.text) for abs
    testmain.o(.text.main) refers to testmain.o(.bss.distance) for distance
    testmain.o(.text.main) refers to testmain.o(.data.Mimic_Servo) for Mimic_Servo
    testmain.o(.text.main) refers to adc.o(.text.Read_ADC) for Read_ADC
    testmain.o(.text.main) refers to testmain.o(.data.count) for count
    testmain.o(.text.main) refers to testmain.o(.bss.old_count) for old_count
    testmain.o(.text.main) refers to testmain.o(.data.num) for num
    testmain.o(.text.main) refers to sevenseg.o(.text.sevenSeg_write) for sevenSeg_write
    testmain.o(.ARM.exidx.text.main) refers to testmain.o(.text.main) for [Anonymous Symbol]
    testmain.o(.ARM.exidx.text.WDT_init) refers to testmain.o(.text.WDT_init) for [Anonymous Symbol]
    testmain.o(.ARM.exidx.text.WDT_reset) refers to testmain.o(.text.WDT_reset) for [Anonymous Symbol]
    testmain.o(.text.MENU_SCREENS) refers to testmain.o(.data.menu) for menu
    testmain.o(.text.MENU_SCREENS) refers to testmain.o(.data.menu_flag) for menu_flag
    testmain.o(.text.MENU_SCREENS) refers to testmain.o(.bss.pos) for pos
    testmain.o(.text.MENU_SCREENS) refers to ili9341.o(.text.Rotate_Display) for Rotate_Display
    testmain.o(.text.MENU_SCREENS) refers to ili9341.o(.text.Fill_Rect) for Fill_Rect
    testmain.o(.text.MENU_SCREENS) refers to testmain.o(.text.Read_Date) for Read_Date
    testmain.o(.text.MENU_SCREENS) refers to testmain.o(.rodata.font_ubuntu_mono_24) for font_ubuntu_mono_24
    testmain.o(.text.MENU_SCREENS) refers to testmain.o(.rodata.str1.1) for .L.str.2
    testmain.o(.text.MENU_SCREENS) refers to ili9341.o(.text.Draw_String_BG) for Draw_String_BG
    testmain.o(.text.MENU_SCREENS) refers to testmain.o(.text.Read_Time) for Read_Time
    testmain.o(.text.MENU_SCREENS) refers to testmain.o(.text.Set_TD) for Set_TD
    testmain.o(.text.MENU_SCREENS) refers to ili9341.o(.text.Fill_Screen) for Fill_Screen
    testmain.o(.text.MENU_SCREENS) refers to testmain.o(.data.Expression_Transition) for Expression_Transition
    testmain.o(.text.MENU_SCREENS) refers to testmain.o(.rodata.contentImage) for contentImage
    testmain.o(.text.MENU_SCREENS) refers to ili9341.o(.text.Draw_Bitmap) for Draw_Bitmap
    testmain.o(.text.MENU_SCREENS) refers to testmain.o(.rodata.HappyImage) for HappyImage
    testmain.o(.text.MENU_SCREENS) refers to testmain.o(.rodata.HungryImage) for HungryImage
    testmain.o(.text.MENU_SCREENS) refers to testmain.o(.rodata.SleepyImage) for SleepyImage
    testmain.o(.ARM.exidx.text.MENU_SCREENS) refers to testmain.o(.text.MENU_SCREENS) for [Anonymous Symbol]
    testmain.o(.text.EXTI15_10_IRQHandler) refers to testmain.o(.bss.test) for test
    testmain.o(.text.EXTI15_10_IRQHandler) refers to health_bar.o(.text.HealthPlusPlus) for HealthPlusPlus
    testmain.o(.text.EXTI15_10_IRQHandler) refers to testmain.o(.bss.petFlag) for petFlag
    testmain.o(.ARM.exidx.text.EXTI15_10_IRQHandler) refers to testmain.o(.text.EXTI15_10_IRQHandler) for [Anonymous Symbol]
    testmain.o(.text.EXTI4_IRQHandler) refers to testmain.o(.bss.swPress) for swPress
    testmain.o(.text.EXTI4_IRQHandler) refers to testmain.o(.data.menu) for menu
    testmain.o(.text.EXTI4_IRQHandler) refers to testmain.o(.bss.pos) for pos
    testmain.o(.text.EXTI4_IRQHandler) refers to testmain.o(.bss.value) for value
    testmain.o(.text.EXTI4_IRQHandler) refers to testmain.o(.data.menu_flag) for menu_flag
    testmain.o(.text.EXTI4_IRQHandler) refers to testmain.o(.bss.RTC_Second) for RTC_Second
    testmain.o(.text.EXTI4_IRQHandler) refers to testmain.o(.bss.RTC_Minute) for RTC_Minute
    testmain.o(.text.EXTI4_IRQHandler) refers to testmain.o(.bss.RTC_Hour) for RTC_Hour
    testmain.o(.text.EXTI4_IRQHandler) refers to testmain.o(.bss.RTC_Date) for RTC_Date
    testmain.o(.text.EXTI4_IRQHandler) refers to testmain.o(.bss.RTC_Month) for RTC_Month
    testmain.o(.text.EXTI4_IRQHandler) refers to testmain.o(.bss.RTC_Year) for RTC_Year
    testmain.o(.text.EXTI4_IRQHandler) refers to testmain.o(.data.state) for state
    testmain.o(.ARM.exidx.text.EXTI4_IRQHandler) refers to testmain.o(.text.EXTI4_IRQHandler) for [Anonymous Symbol]
    testmain.o(.text.Set_Time) refers to i2c.o(.text.I2C1_byteWrite) for I2C1_byteWrite
    testmain.o(.ARM.exidx.text.Set_Time) refers to testmain.o(.text.Set_Time) for [Anonymous Symbol]
    testmain.o(.text.Set_Date) refers to i2c.o(.text.I2C1_byteWrite) for I2C1_byteWrite
    testmain.o(.ARM.exidx.text.Set_Date) refers to testmain.o(.text.Set_Date) for [Anonymous Symbol]
    testmain.o(.text.Read_Date) refers to testmain.o(.data.RTC_Data_ptr) for RTC_Data_ptr
    testmain.o(.text.Read_Date) refers to i2c.o(.text.I2C1_byteRead) for I2C1_byteRead
    testmain.o(.text.Read_Date) refers to testmain.o(.bss.RTC_data) for RTC_data
    testmain.o(.text.Read_Date) refers to testmain.o(.rodata.font_ubuntu_mono_24) for font_ubuntu_mono_24
    testmain.o(.text.Read_Date) refers to ili9341.o(.text.Draw_Char_BG) for Draw_Char_BG
    testmain.o(.ARM.exidx.text.Read_Date) refers to testmain.o(.text.Read_Date) for [Anonymous Symbol]
    testmain.o(.text.Read_Time) refers to testmain.o(.data.RTC_Data_ptr) for RTC_Data_ptr
    testmain.o(.text.Read_Time) refers to i2c.o(.text.I2C1_byteRead) for I2C1_byteRead
    testmain.o(.text.Read_Time) refers to testmain.o(.bss.RTC_data) for RTC_data
    testmain.o(.text.Read_Time) refers to testmain.o(.rodata.font_ubuntu_mono_24) for font_ubuntu_mono_24
    testmain.o(.text.Read_Time) refers to ili9341.o(.text.Draw_Char_BG) for Draw_Char_BG
    testmain.o(.ARM.exidx.text.Read_Time) refers to testmain.o(.text.Read_Time) for [Anonymous Symbol]
    testmain.o(.text.Set_TD) refers to testmain.o(.data.menu_flag) for menu_flag
    testmain.o(.text.Set_TD) refers to testmain.o(.bss.swPress) for swPress
    testmain.o(.text.Set_TD) refers to testmain.o(.bss.pos) for pos
    testmain.o(.text.Set_TD) refers to testmain.o(.bss.tmp) for tmp
    testmain.o(.text.Set_TD) refers to testmain.o(.bss.timeDate) for timeDate
    testmain.o(.text.Set_TD) refers to testmain.o(.bss.value) for value
    testmain.o(.text.Set_TD) refers to testmain.o(.rodata.font_ubuntu_mono_24) for font_ubuntu_mono_24
    testmain.o(.text.Set_TD) refers to ili9341.o(.text.Draw_Char_BG) for Draw_Char_BG
    testmain.o(.text.Set_TD) refers to testmain.o(.rodata.str1.1) for .L.str
    testmain.o(.text.Set_TD) refers to ili9341.o(.text.Draw_String_BG) for Draw_String_BG
    testmain.o(.text.Set_TD) refers to testmain.o(.bss.RTC_Second) for RTC_Second
    testmain.o(.text.Set_TD) refers to testmain.o(.bss.RTC_Minute) for RTC_Minute
    testmain.o(.text.Set_TD) refers to testmain.o(.bss.RTC_Hour) for RTC_Hour
    testmain.o(.text.Set_TD) refers to testmain.o(.bss.RTC_Date) for RTC_Date
    testmain.o(.text.Set_TD) refers to testmain.o(.bss.RTC_Month) for RTC_Month
    testmain.o(.text.Set_TD) refers to testmain.o(.bss.RTC_Year) for RTC_Year
    testmain.o(.text.Set_TD) refers to testmain.o(.text.Set_Time) for Set_Time
    testmain.o(.text.Set_TD) refers to testmain.o(.text.Set_Date) for Set_Date
    testmain.o(.ARM.exidx.text.Set_TD) refers to testmain.o(.text.Set_TD) for [Anonymous Symbol]
    testmain.o(.text.TIM5_IRQHandler) refers to testmain.o(.bss.random_seconds_counter) for random_seconds_counter
    testmain.o(.text.TIM5_IRQHandler) refers to testmain.o(.data.state) for state
    testmain.o(.text.TIM5_IRQHandler) refers to testmain.o(.data.count) for count
    testmain.o(.text.TIM5_IRQHandler) refers to health_bar.o(.text.HealthMinusMinus) for HealthMinusMinus
    testmain.o(.text.TIM5_IRQHandler) refers to testmain.o(.bss.tongue_wag) for tongue_wag
    testmain.o(.text.TIM5_IRQHandler) refers to testmain.o(.data.Mimic_Servo) for Mimic_Servo
    testmain.o(.text.TIM5_IRQHandler) refers to testmain.o(.bss.petFlag) for petFlag
    testmain.o(.text.TIM5_IRQHandler) refers to servo.o(.text.Tongue_Move_To) for Tongue_Move_To
    testmain.o(.text.TIM5_IRQHandler) refers to testmain.o(.data.random_seconds) for random_seconds
    testmain.o(.text.TIM5_IRQHandler) refers to rand.o(.emb_text) for rand
    testmain.o(.text.TIM5_IRQHandler) refers to servo.o(.text.Eye_Move_To) for Eye_Move_To
    testmain.o(.ARM.exidx.text.TIM5_IRQHandler) refers to testmain.o(.text.TIM5_IRQHandler) for [Anonymous Symbol]
    testmain.o(.text.Store_Current_Health) refers to health_bar.o(.data.health) for health
    testmain.o(.text.Store_Current_Health) refers to i2c.o(.text.I2C1_byteWrite) for I2C1_byteWrite
    testmain.o(.ARM.exidx.text.Store_Current_Health) refers to testmain.o(.text.Store_Current_Health) for [Anonymous Symbol]
    testmain.o(.text.Retrieve_Health) refers to testmain.o(.bss.health_ptr) for health_ptr
    testmain.o(.text.Retrieve_Health) refers to i2c.o(.text.I2C1_byteRead) for I2C1_byteRead
    testmain.o(.ARM.exidx.text.Retrieve_Health) refers to testmain.o(.text.Retrieve_Health) for [Anonymous Symbol]
    testmain.o(.rodata.contentImage) refers to testmain.o(.rodata.content) for content
    testmain.o(.rodata.HappyImage) refers to testmain.o(.rodata.Happy) for Happy
    testmain.o(.rodata.HungryImage) refers to testmain.o(.rodata.Hungry) for Hungry
    testmain.o(.rodata.SleepyImage) refers to testmain.o(.rodata.Sleepy) for Sleepy
    testmain.o(.data.RTC_Data_ptr) refers to testmain.o(.bss.RTC_data) for RTC_data
    testmain.o(.rodata.font_ubuntu_mono_24) refers to testmain.o(.rodata.font_ubuntu_mono_24_array) for [Anonymous Symbol]
    testmain.o(.rodata.font_ubuntu_mono_24_array) refers to testmain.o(.rodata.font_ubuntu_mono_24_0x20) for [Anonymous Symbol]
    testmain.o(.rodata.font_ubuntu_mono_24_array) refers to testmain.o(.rodata.font_ubuntu_mono_24_0x21) for [Anonymous Symbol]
    testmain.o(.rodata.font_ubuntu_mono_24_array) refers to testmain.o(.rodata.font_ubuntu_mono_24_0x22) for [Anonymous Symbol]
    testmain.o(.rodata.font_ubuntu_mono_24_array) refers to testmain.o(.rodata.font_ubuntu_mono_24_0x23) for [Anonymous Symbol]
    testmain.o(.rodata.font_ubuntu_mono_24_array) refers to testmain.o(.rodata.font_ubuntu_mono_24_0x24) for [Anonymous Symbol]
    testmain.o(.rodata.font_ubuntu_mono_24_array) refers to testmain.o(.rodata.font_ubuntu_mono_24_0x25) for [Anonymous Symbol]
    testmain.o(.rodata.font_ubuntu_mono_24_array) refers to testmain.o(.rodata.font_ubuntu_mono_24_0x26) for [Anonymous Symbol]
    testmain.o(.rodata.font_ubuntu_mono_24_array) refers to testmain.o(.rodata.font_ubuntu_mono_24_0x27) for [Anonymous Symbol]
    testmain.o(.rodata.font_ubuntu_mono_24_array) refers to testmain.o(.rodata.font_ubuntu_mono_24_0x28) for [Anonymous Symbol]
    testmain.o(.rodata.font_ubuntu_mono_24_array) refers to testmain.o(.rodata.font_ubuntu_mono_24_0x29) for [Anonymous Symbol]
    testmain.o(.rodata.font_ubuntu_mono_24_array) refers to testmain.o(.rodata.font_ubuntu_mono_24_0x2a) for [Anonymous Symbol]
    testmain.o(.rodata.font_ubuntu_mono_24_array) refers to testmain.o(.rodata.font_ubuntu_mono_24_0x2b) for [Anonymous Symbol]
    testmain.o(.rodata.font_ubuntu_mono_24_array) refers to testmain.o(.rodata.font_ubuntu_mono_24_0x2c) for [Anonymous Symbol]
    testmain.o(.rodata.font_ubuntu_mono_24_array) refers to testmain.o(.rodata.font_ubuntu_mono_24_0x2d) for [Anonymous Symbol]
    testmain.o(.rodata.font_ubuntu_mono_24_array) refers to testmain.o(.rodata.font_ubuntu_mono_24_0x2e) for [Anonymous Symbol]
    testmain.o(.rodata.font_ubuntu_mono_24_array) refers to testmain.o(.rodata.font_ubuntu_mono_24_0x2f) for [Anonymous Symbol]
    testmain.o(.rodata.font_ubuntu_mono_24_array) refers to testmain.o(.rodata.font_ubuntu_mono_24_0x30) for [Anonymous Symbol]
    testmain.o(.rodata.font_ubuntu_mono_24_array) refers to testmain.o(.rodata.font_ubuntu_mono_24_0x31) for [Anonymous Symbol]
    testmain.o(.rodata.font_ubuntu_mono_24_array) refers to testmain.o(.rodata.font_ubuntu_mono_24_0x32) for [Anonymous Symbol]
    testmain.o(.rodata.font_ubuntu_mono_24_array) refers to testmain.o(.rodata.font_ubuntu_mono_24_0x33) for [Anonymous Symbol]
    testmain.o(.rodata.font_ubuntu_mono_24_array) refers to testmain.o(.rodata.font_ubuntu_mono_24_0x34) for [Anonymous Symbol]
    testmain.o(.rodata.font_ubuntu_mono_24_array) refers to testmain.o(.rodata.font_ubuntu_mono_24_0x35) for [Anonymous Symbol]
    testmain.o(.rodata.font_ubuntu_mono_24_array) refers to testmain.o(.rodata.font_ubuntu_mono_24_0x36) for [Anonymous Symbol]
    testmain.o(.rodata.font_ubuntu_mono_24_array) refers to testmain.o(.rodata.font_ubuntu_mono_24_0x37) for [Anonymous Symbol]
    testmain.o(.rodata.font_ubuntu_mono_24_array) refers to testmain.o(.rodata.font_ubuntu_mono_24_0x38) for [Anonymous Symbol]
    testmain.o(.rodata.font_ubuntu_mono_24_array) refers to testmain.o(.rodata.font_ubuntu_mono_24_0x39) for [Anonymous Symbol]
    testmain.o(.rodata.font_ubuntu_mono_24_array) refers to testmain.o(.rodata.font_ubuntu_mono_24_0x3a) for [Anonymous Symbol]
    testmain.o(.rodata.font_ubuntu_mono_24_array) refers to testmain.o(.rodata.font_ubuntu_mono_24_0x3b) for [Anonymous Symbol]
    testmain.o(.rodata.font_ubuntu_mono_24_array) refers to testmain.o(.rodata.font_ubuntu_mono_24_0x3c) for [Anonymous Symbol]
    testmain.o(.rodata.font_ubuntu_mono_24_array) refers to testmain.o(.rodata.font_ubuntu_mono_24_0x3d) for [Anonymous Symbol]
    testmain.o(.rodata.font_ubuntu_mono_24_array) refers to testmain.o(.rodata.font_ubuntu_mono_24_0x3e) for [Anonymous Symbol]
    testmain.o(.rodata.font_ubuntu_mono_24_array) refers to testmain.o(.rodata.font_ubuntu_mono_24_0x3f) for [Anonymous Symbol]
    testmain.o(.rodata.font_ubuntu_mono_24_array) refers to testmain.o(.rodata.font_ubuntu_mono_24_0x40) for [Anonymous Symbol]
    testmain.o(.rodata.font_ubuntu_mono_24_array) refers to testmain.o(.rodata.font_ubuntu_mono_24_0x41) for [Anonymous Symbol]
    testmain.o(.rodata.font_ubuntu_mono_24_array) refers to testmain.o(.rodata.font_ubuntu_mono_24_0x42) for [Anonymous Symbol]
    testmain.o(.rodata.font_ubuntu_mono_24_array) refers to testmain.o(.rodata.font_ubuntu_mono_24_0x43) for [Anonymous Symbol]
    testmain.o(.rodata.font_ubuntu_mono_24_array) refers to testmain.o(.rodata.font_ubuntu_mono_24_0x44) for [Anonymous Symbol]
    testmain.o(.rodata.font_ubuntu_mono_24_array) refers to testmain.o(.rodata.font_ubuntu_mono_24_0x45) for [Anonymous Symbol]
    testmain.o(.rodata.font_ubuntu_mono_24_array) refers to testmain.o(.rodata.font_ubuntu_mono_24_0x46) for [Anonymous Symbol]
    testmain.o(.rodata.font_ubuntu_mono_24_array) refers to testmain.o(.rodata.font_ubuntu_mono_24_0x47) for [Anonymous Symbol]
    testmain.o(.rodata.font_ubuntu_mono_24_array) refers to testmain.o(.rodata.font_ubuntu_mono_24_0x48) for [Anonymous Symbol]
    testmain.o(.rodata.font_ubuntu_mono_24_array) refers to testmain.o(.rodata.font_ubuntu_mono_24_0x49) for [Anonymous Symbol]
    testmain.o(.rodata.font_ubuntu_mono_24_array) refers to testmain.o(.rodata.font_ubuntu_mono_24_0x4a) for [Anonymous Symbol]
    testmain.o(.rodata.font_ubuntu_mono_24_array) refers to testmain.o(.rodata.font_ubuntu_mono_24_0x4b) for [Anonymous Symbol]
    testmain.o(.rodata.font_ubuntu_mono_24_array) refers to testmain.o(.rodata.font_ubuntu_mono_24_0x4c) for [Anonymous Symbol]
    testmain.o(.rodata.font_ubuntu_mono_24_array) refers to testmain.o(.rodata.font_ubuntu_mono_24_0x4d) for [Anonymous Symbol]
    testmain.o(.rodata.font_ubuntu_mono_24_array) refers to testmain.o(.rodata.font_ubuntu_mono_24_0x4e) for [Anonymous Symbol]
    testmain.o(.rodata.font_ubuntu_mono_24_array) refers to testmain.o(.rodata.font_ubuntu_mono_24_0x4f) for [Anonymous Symbol]
    testmain.o(.rodata.font_ubuntu_mono_24_array) refers to testmain.o(.rodata.font_ubuntu_mono_24_0x50) for [Anonymous Symbol]
    testmain.o(.rodata.font_ubuntu_mono_24_array) refers to testmain.o(.rodata.font_ubuntu_mono_24_0x51) for [Anonymous Symbol]
    testmain.o(.rodata.font_ubuntu_mono_24_array) refers to testmain.o(.rodata.font_ubuntu_mono_24_0x52) for [Anonymous Symbol]
    testmain.o(.rodata.font_ubuntu_mono_24_array) refers to testmain.o(.rodata.font_ubuntu_mono_24_0x53) for [Anonymous Symbol]
    testmain.o(.rodata.font_ubuntu_mono_24_array) refers to testmain.o(.rodata.font_ubuntu_mono_24_0x54) for [Anonymous Symbol]
    testmain.o(.rodata.font_ubuntu_mono_24_array) refers to testmain.o(.rodata.font_ubuntu_mono_24_0x55) for [Anonymous Symbol]
    testmain.o(.rodata.font_ubuntu_mono_24_array) refers to testmain.o(.rodata.font_ubuntu_mono_24_0x56) for [Anonymous Symbol]
    testmain.o(.rodata.font_ubuntu_mono_24_array) refers to testmain.o(.rodata.font_ubuntu_mono_24_0x57) for [Anonymous Symbol]
    testmain.o(.rodata.font_ubuntu_mono_24_array) refers to testmain.o(.rodata.font_ubuntu_mono_24_0x58) for [Anonymous Symbol]
    testmain.o(.rodata.font_ubuntu_mono_24_array) refers to testmain.o(.rodata.font_ubuntu_mono_24_0x59) for [Anonymous Symbol]
    testmain.o(.rodata.font_ubuntu_mono_24_array) refers to testmain.o(.rodata.font_ubuntu_mono_24_0x5a) for [Anonymous Symbol]
    testmain.o(.rodata.font_ubuntu_mono_24_array) refers to testmain.o(.rodata.font_ubuntu_mono_24_0x5b) for [Anonymous Symbol]
    testmain.o(.rodata.font_ubuntu_mono_24_array) refers to testmain.o(.rodata.font_ubuntu_mono_24_0x5c) for [Anonymous Symbol]
    testmain.o(.rodata.font_ubuntu_mono_24_array) refers to testmain.o(.rodata.font_ubuntu_mono_24_0x5d) for [Anonymous Symbol]
    testmain.o(.rodata.font_ubuntu_mono_24_array) refers to testmain.o(.rodata.font_ubuntu_mono_24_0x5e) for [Anonymous Symbol]
    testmain.o(.rodata.font_ubuntu_mono_24_array) refers to testmain.o(.rodata.font_ubuntu_mono_24_0x5f) for [Anonymous Symbol]
    testmain.o(.rodata.font_ubuntu_mono_24_array) refers to testmain.o(.rodata.font_ubuntu_mono_24_0x60) for [Anonymous Symbol]
    testmain.o(.rodata.font_ubuntu_mono_24_array) refers to testmain.o(.rodata.font_ubuntu_mono_24_0x61) for [Anonymous Symbol]
    testmain.o(.rodata.font_ubuntu_mono_24_array) refers to testmain.o(.rodata.font_ubuntu_mono_24_0x62) for [Anonymous Symbol]
    testmain.o(.rodata.font_ubuntu_mono_24_array) refers to testmain.o(.rodata.font_ubuntu_mono_24_0x63) for [Anonymous Symbol]
    testmain.o(.rodata.font_ubuntu_mono_24_array) refers to testmain.o(.rodata.font_ubuntu_mono_24_0x64) for [Anonymous Symbol]
    testmain.o(.rodata.font_ubuntu_mono_24_array) refers to testmain.o(.rodata.font_ubuntu_mono_24_0x65) for [Anonymous Symbol]
    testmain.o(.rodata.font_ubuntu_mono_24_array) refers to testmain.o(.rodata.font_ubuntu_mono_24_0x66) for [Anonymous Symbol]
    testmain.o(.rodata.font_ubuntu_mono_24_array) refers to testmain.o(.rodata.font_ubuntu_mono_24_0x67) for [Anonymous Symbol]
    testmain.o(.rodata.font_ubuntu_mono_24_array) refers to testmain.o(.rodata.font_ubuntu_mono_24_0x68) for [Anonymous Symbol]
    testmain.o(.rodata.font_ubuntu_mono_24_array) refers to testmain.o(.rodata.font_ubuntu_mono_24_0x69) for [Anonymous Symbol]
    testmain.o(.rodata.font_ubuntu_mono_24_array) refers to testmain.o(.rodata.font_ubuntu_mono_24_0x6a) for [Anonymous Symbol]
    testmain.o(.rodata.font_ubuntu_mono_24_array) refers to testmain.o(.rodata.font_ubuntu_mono_24_0x6b) for [Anonymous Symbol]
    testmain.o(.rodata.font_ubuntu_mono_24_array) refers to testmain.o(.rodata.font_ubuntu_mono_24_0x6c) for [Anonymous Symbol]
    testmain.o(.rodata.font_ubuntu_mono_24_array) refers to testmain.o(.rodata.font_ubuntu_mono_24_0x6d) for [Anonymous Symbol]
    testmain.o(.rodata.font_ubuntu_mono_24_array) refers to testmain.o(.rodata.font_ubuntu_mono_24_0x6e) for [Anonymous Symbol]
    testmain.o(.rodata.font_ubuntu_mono_24_array) refers to testmain.o(.rodata.font_ubuntu_mono_24_0x6f) for [Anonymous Symbol]
    testmain.o(.rodata.font_ubuntu_mono_24_array) refers to testmain.o(.rodata.font_ubuntu_mono_24_0x70) for [Anonymous Symbol]
    testmain.o(.rodata.font_ubuntu_mono_24_array) refers to testmain.o(.rodata.font_ubuntu_mono_24_0x71) for [Anonymous Symbol]
    testmain.o(.rodata.font_ubuntu_mono_24_array) refers to testmain.o(.rodata.font_ubuntu_mono_24_0x72) for [Anonymous Symbol]
    testmain.o(.rodata.font_ubuntu_mono_24_array) refers to testmain.o(.rodata.font_ubuntu_mono_24_0x73) for [Anonymous Symbol]
    testmain.o(.rodata.font_ubuntu_mono_24_array) refers to testmain.o(.rodata.font_ubuntu_mono_24_0x74) for [Anonymous Symbol]
    testmain.o(.rodata.font_ubuntu_mono_24_array) refers to testmain.o(.rodata.font_ubuntu_mono_24_0x75) for [Anonymous Symbol]
    testmain.o(.rodata.font_ubuntu_mono_24_array) refers to testmain.o(.rodata.font_ubuntu_mono_24_0x76) for [Anonymous Symbol]
    testmain.o(.rodata.font_ubuntu_mono_24_array) refers to testmain.o(.rodata.font_ubuntu_mono_24_0x77) for [Anonymous Symbol]
    testmain.o(.rodata.font_ubuntu_mono_24_array) refers to testmain.o(.rodata.font_ubuntu_mono_24_0x78) for [Anonymous Symbol]
    testmain.o(.rodata.font_ubuntu_mono_24_array) refers to testmain.o(.rodata.font_ubuntu_mono_24_0x79) for [Anonymous Symbol]
    testmain.o(.rodata.font_ubuntu_mono_24_array) refers to testmain.o(.rodata.font_ubuntu_mono_24_0x7a) for [Anonymous Symbol]
    testmain.o(.rodata.font_ubuntu_mono_24_array) refers to testmain.o(.rodata.font_ubuntu_mono_24_0x7b) for [Anonymous Symbol]
    testmain.o(.rodata.font_ubuntu_mono_24_array) refers to testmain.o(.rodata.font_ubuntu_mono_24_0x7c) for [Anonymous Symbol]
    testmain.o(.rodata.font_ubuntu_mono_24_array) refers to testmain.o(.rodata.font_ubuntu_mono_24_0x7d) for [Anonymous Symbol]
    testmain.o(.rodata.font_ubuntu_mono_24_array) refers to testmain.o(.rodata.font_ubuntu_mono_24_0x7e) for [Anonymous Symbol]
    testmain.o(.rodata.font_ubuntu_mono_24_0x20) refers to testmain.o(.rodata.image_data_font_ubuntu_mono_24_0x20) for [Anonymous Symbol]
    testmain.o(.rodata.font_ubuntu_mono_24_0x21) refers to testmain.o(.rodata.image_data_font_ubuntu_mono_24_0x21) for [Anonymous Symbol]
    testmain.o(.rodata.font_ubuntu_mono_24_0x22) refers to testmain.o(.rodata.image_data_font_ubuntu_mono_24_0x22) for [Anonymous Symbol]
    testmain.o(.rodata.font_ubuntu_mono_24_0x23) refers to testmain.o(.rodata.image_data_font_ubuntu_mono_24_0x23) for [Anonymous Symbol]
    testmain.o(.rodata.font_ubuntu_mono_24_0x24) refers to testmain.o(.rodata.image_data_font_ubuntu_mono_24_0x24) for [Anonymous Symbol]
    testmain.o(.rodata.font_ubuntu_mono_24_0x25) refers to testmain.o(.rodata.image_data_font_ubuntu_mono_24_0x25) for [Anonymous Symbol]
    testmain.o(.rodata.font_ubuntu_mono_24_0x26) refers to testmain.o(.rodata.image_data_font_ubuntu_mono_24_0x26) for [Anonymous Symbol]
    testmain.o(.rodata.font_ubuntu_mono_24_0x27) refers to testmain.o(.rodata.image_data_font_ubuntu_mono_24_0x27) for [Anonymous Symbol]
    testmain.o(.rodata.font_ubuntu_mono_24_0x28) refers to testmain.o(.rodata.image_data_font_ubuntu_mono_24_0x28) for [Anonymous Symbol]
    testmain.o(.rodata.font_ubuntu_mono_24_0x29) refers to testmain.o(.rodata.image_data_font_ubuntu_mono_24_0x29) for [Anonymous Symbol]
    testmain.o(.rodata.font_ubuntu_mono_24_0x2a) refers to testmain.o(.rodata.image_data_font_ubuntu_mono_24_0x2a) for [Anonymous Symbol]
    testmain.o(.rodata.font_ubuntu_mono_24_0x2b) refers to testmain.o(.rodata.image_data_font_ubuntu_mono_24_0x2b) for [Anonymous Symbol]
    testmain.o(.rodata.font_ubuntu_mono_24_0x2c) refers to testmain.o(.rodata.image_data_font_ubuntu_mono_24_0x2c) for [Anonymous Symbol]
    testmain.o(.rodata.font_ubuntu_mono_24_0x2d) refers to testmain.o(.rodata.image_data_font_ubuntu_mono_24_0x2d) for [Anonymous Symbol]
    testmain.o(.rodata.font_ubuntu_mono_24_0x2e) refers to testmain.o(.rodata.image_data_font_ubuntu_mono_24_0x2e) for [Anonymous Symbol]
    testmain.o(.rodata.font_ubuntu_mono_24_0x2f) refers to testmain.o(.rodata.image_data_font_ubuntu_mono_24_0x2f) for [Anonymous Symbol]
    testmain.o(.rodata.font_ubuntu_mono_24_0x30) refers to testmain.o(.rodata.image_data_font_ubuntu_mono_24_0x30) for [Anonymous Symbol]
    testmain.o(.rodata.font_ubuntu_mono_24_0x31) refers to testmain.o(.rodata.image_data_font_ubuntu_mono_24_0x31) for [Anonymous Symbol]
    testmain.o(.rodata.font_ubuntu_mono_24_0x32) refers to testmain.o(.rodata.image_data_font_ubuntu_mono_24_0x32) for [Anonymous Symbol]
    testmain.o(.rodata.font_ubuntu_mono_24_0x33) refers to testmain.o(.rodata.image_data_font_ubuntu_mono_24_0x33) for [Anonymous Symbol]
    testmain.o(.rodata.font_ubuntu_mono_24_0x34) refers to testmain.o(.rodata.image_data_font_ubuntu_mono_24_0x34) for [Anonymous Symbol]
    testmain.o(.rodata.font_ubuntu_mono_24_0x35) refers to testmain.o(.rodata.image_data_font_ubuntu_mono_24_0x35) for [Anonymous Symbol]
    testmain.o(.rodata.font_ubuntu_mono_24_0x36) refers to testmain.o(.rodata.image_data_font_ubuntu_mono_24_0x36) for [Anonymous Symbol]
    testmain.o(.rodata.font_ubuntu_mono_24_0x37) refers to testmain.o(.rodata.image_data_font_ubuntu_mono_24_0x37) for [Anonymous Symbol]
    testmain.o(.rodata.font_ubuntu_mono_24_0x38) refers to testmain.o(.rodata.image_data_font_ubuntu_mono_24_0x38) for [Anonymous Symbol]
    testmain.o(.rodata.font_ubuntu_mono_24_0x39) refers to testmain.o(.rodata.image_data_font_ubuntu_mono_24_0x39) for [Anonymous Symbol]
    testmain.o(.rodata.font_ubuntu_mono_24_0x3a) refers to testmain.o(.rodata.image_data_font_ubuntu_mono_24_0x3a) for [Anonymous Symbol]
    testmain.o(.rodata.font_ubuntu_mono_24_0x3b) refers to testmain.o(.rodata.image_data_font_ubuntu_mono_24_0x3b) for [Anonymous Symbol]
    testmain.o(.rodata.font_ubuntu_mono_24_0x3c) refers to testmain.o(.rodata.image_data_font_ubuntu_mono_24_0x3c) for [Anonymous Symbol]
    testmain.o(.rodata.font_ubuntu_mono_24_0x3d) refers to testmain.o(.rodata.image_data_font_ubuntu_mono_24_0x3d) for [Anonymous Symbol]
    testmain.o(.rodata.font_ubuntu_mono_24_0x3e) refers to testmain.o(.rodata.image_data_font_ubuntu_mono_24_0x3e) for [Anonymous Symbol]
    testmain.o(.rodata.font_ubuntu_mono_24_0x3f) refers to testmain.o(.rodata.image_data_font_ubuntu_mono_24_0x3f) for [Anonymous Symbol]
    testmain.o(.rodata.font_ubuntu_mono_24_0x40) refers to testmain.o(.rodata.image_data_font_ubuntu_mono_24_0x40) for [Anonymous Symbol]
    testmain.o(.rodata.font_ubuntu_mono_24_0x41) refers to testmain.o(.rodata.image_data_font_ubuntu_mono_24_0x41) for [Anonymous Symbol]
    testmain.o(.rodata.font_ubuntu_mono_24_0x42) refers to testmain.o(.rodata.image_data_font_ubuntu_mono_24_0x42) for [Anonymous Symbol]
    testmain.o(.rodata.font_ubuntu_mono_24_0x43) refers to testmain.o(.rodata.image_data_font_ubuntu_mono_24_0x43) for [Anonymous Symbol]
    testmain.o(.rodata.font_ubuntu_mono_24_0x44) refers to testmain.o(.rodata.image_data_font_ubuntu_mono_24_0x44) for [Anonymous Symbol]
    testmain.o(.rodata.font_ubuntu_mono_24_0x45) refers to testmain.o(.rodata.image_data_font_ubuntu_mono_24_0x45) for [Anonymous Symbol]
    testmain.o(.rodata.font_ubuntu_mono_24_0x46) refers to testmain.o(.rodata.image_data_font_ubuntu_mono_24_0x46) for [Anonymous Symbol]
    testmain.o(.rodata.font_ubuntu_mono_24_0x47) refers to testmain.o(.rodata.image_data_font_ubuntu_mono_24_0x47) for [Anonymous Symbol]
    testmain.o(.rodata.font_ubuntu_mono_24_0x48) refers to testmain.o(.rodata.image_data_font_ubuntu_mono_24_0x48) for [Anonymous Symbol]
    testmain.o(.rodata.font_ubuntu_mono_24_0x49) refers to testmain.o(.rodata.image_data_font_ubuntu_mono_24_0x49) for [Anonymous Symbol]
    testmain.o(.rodata.font_ubuntu_mono_24_0x4a) refers to testmain.o(.rodata.image_data_font_ubuntu_mono_24_0x4a) for [Anonymous Symbol]
    testmain.o(.rodata.font_ubuntu_mono_24_0x4b) refers to testmain.o(.rodata.image_data_font_ubuntu_mono_24_0x4b) for [Anonymous Symbol]
    testmain.o(.rodata.font_ubuntu_mono_24_0x4c) refers to testmain.o(.rodata.image_data_font_ubuntu_mono_24_0x4c) for [Anonymous Symbol]
    testmain.o(.rodata.font_ubuntu_mono_24_0x4d) refers to testmain.o(.rodata.image_data_font_ubuntu_mono_24_0x4d) for [Anonymous Symbol]
    testmain.o(.rodata.font_ubuntu_mono_24_0x4e) refers to testmain.o(.rodata.image_data_font_ubuntu_mono_24_0x4e) for [Anonymous Symbol]
    testmain.o(.rodata.font_ubuntu_mono_24_0x4f) refers to testmain.o(.rodata.image_data_font_ubuntu_mono_24_0x4f) for [Anonymous Symbol]
    testmain.o(.rodata.font_ubuntu_mono_24_0x50) refers to testmain.o(.rodata.image_data_font_ubuntu_mono_24_0x50) for [Anonymous Symbol]
    testmain.o(.rodata.font_ubuntu_mono_24_0x51) refers to testmain.o(.rodata.image_data_font_ubuntu_mono_24_0x51) for [Anonymous Symbol]
    testmain.o(.rodata.font_ubuntu_mono_24_0x52) refers to testmain.o(.rodata.image_data_font_ubuntu_mono_24_0x52) for [Anonymous Symbol]
    testmain.o(.rodata.font_ubuntu_mono_24_0x53) refers to testmain.o(.rodata.image_data_font_ubuntu_mono_24_0x53) for [Anonymous Symbol]
    testmain.o(.rodata.font_ubuntu_mono_24_0x54) refers to testmain.o(.rodata.image_data_font_ubuntu_mono_24_0x54) for [Anonymous Symbol]
    testmain.o(.rodata.font_ubuntu_mono_24_0x55) refers to testmain.o(.rodata.image_data_font_ubuntu_mono_24_0x55) for [Anonymous Symbol]
    testmain.o(.rodata.font_ubuntu_mono_24_0x56) refers to testmain.o(.rodata.image_data_font_ubuntu_mono_24_0x56) for [Anonymous Symbol]
    testmain.o(.rodata.font_ubuntu_mono_24_0x57) refers to testmain.o(.rodata.image_data_font_ubuntu_mono_24_0x57) for [Anonymous Symbol]
    testmain.o(.rodata.font_ubuntu_mono_24_0x58) refers to testmain.o(.rodata.image_data_font_ubuntu_mono_24_0x58) for [Anonymous Symbol]
    testmain.o(.rodata.font_ubuntu_mono_24_0x59) refers to testmain.o(.rodata.image_data_font_ubuntu_mono_24_0x59) for [Anonymous Symbol]
    testmain.o(.rodata.font_ubuntu_mono_24_0x5a) refers to testmain.o(.rodata.image_data_font_ubuntu_mono_24_0x5a) for [Anonymous Symbol]
    testmain.o(.rodata.font_ubuntu_mono_24_0x5b) refers to testmain.o(.rodata.image_data_font_ubuntu_mono_24_0x5b) for [Anonymous Symbol]
    testmain.o(.rodata.font_ubuntu_mono_24_0x5c) refers to testmain.o(.rodata.image_data_font_ubuntu_mono_24_0x5c) for [Anonymous Symbol]
    testmain.o(.rodata.font_ubuntu_mono_24_0x5d) refers to testmain.o(.rodata.image_data_font_ubuntu_mono_24_0x5d) for [Anonymous Symbol]
    testmain.o(.rodata.font_ubuntu_mono_24_0x5e) refers to testmain.o(.rodata.image_data_font_ubuntu_mono_24_0x5e) for [Anonymous Symbol]
    testmain.o(.rodata.font_ubuntu_mono_24_0x5f) refers to testmain.o(.rodata.image_data_font_ubuntu_mono_24_0x5f) for [Anonymous Symbol]
    testmain.o(.rodata.font_ubuntu_mono_24_0x60) refers to testmain.o(.rodata.image_data_font_ubuntu_mono_24_0x60) for [Anonymous Symbol]
    testmain.o(.rodata.font_ubuntu_mono_24_0x61) refers to testmain.o(.rodata.image_data_font_ubuntu_mono_24_0x61) for [Anonymous Symbol]
    testmain.o(.rodata.font_ubuntu_mono_24_0x62) refers to testmain.o(.rodata.image_data_font_ubuntu_mono_24_0x62) for [Anonymous Symbol]
    testmain.o(.rodata.font_ubuntu_mono_24_0x63) refers to testmain.o(.rodata.image_data_font_ubuntu_mono_24_0x63) for [Anonymous Symbol]
    testmain.o(.rodata.font_ubuntu_mono_24_0x64) refers to testmain.o(.rodata.image_data_font_ubuntu_mono_24_0x64) for [Anonymous Symbol]
    testmain.o(.rodata.font_ubuntu_mono_24_0x65) refers to testmain.o(.rodata.image_data_font_ubuntu_mono_24_0x65) for [Anonymous Symbol]
    testmain.o(.rodata.font_ubuntu_mono_24_0x66) refers to testmain.o(.rodata.image_data_font_ubuntu_mono_24_0x66) for [Anonymous Symbol]
    testmain.o(.rodata.font_ubuntu_mono_24_0x67) refers to testmain.o(.rodata.image_data_font_ubuntu_mono_24_0x67) for [Anonymous Symbol]
    testmain.o(.rodata.font_ubuntu_mono_24_0x68) refers to testmain.o(.rodata.image_data_font_ubuntu_mono_24_0x68) for [Anonymous Symbol]
    testmain.o(.rodata.font_ubuntu_mono_24_0x69) refers to testmain.o(.rodata.image_data_font_ubuntu_mono_24_0x69) for [Anonymous Symbol]
    testmain.o(.rodata.font_ubuntu_mono_24_0x6a) refers to testmain.o(.rodata.image_data_font_ubuntu_mono_24_0x6a) for [Anonymous Symbol]
    testmain.o(.rodata.font_ubuntu_mono_24_0x6b) refers to testmain.o(.rodata.image_data_font_ubuntu_mono_24_0x6b) for [Anonymous Symbol]
    testmain.o(.rodata.font_ubuntu_mono_24_0x6c) refers to testmain.o(.rodata.image_data_font_ubuntu_mono_24_0x6c) for [Anonymous Symbol]
    testmain.o(.rodata.font_ubuntu_mono_24_0x6d) refers to testmain.o(.rodata.image_data_font_ubuntu_mono_24_0x6d) for [Anonymous Symbol]
    testmain.o(.rodata.font_ubuntu_mono_24_0x6e) refers to testmain.o(.rodata.image_data_font_ubuntu_mono_24_0x6e) for [Anonymous Symbol]
    testmain.o(.rodata.font_ubuntu_mono_24_0x6f) refers to testmain.o(.rodata.image_data_font_ubuntu_mono_24_0x6f) for [Anonymous Symbol]
    testmain.o(.rodata.font_ubuntu_mono_24_0x70) refers to testmain.o(.rodata.image_data_font_ubuntu_mono_24_0x70) for [Anonymous Symbol]
    testmain.o(.rodata.font_ubuntu_mono_24_0x71) refers to testmain.o(.rodata.image_data_font_ubuntu_mono_24_0x71) for [Anonymous Symbol]
    testmain.o(.rodata.font_ubuntu_mono_24_0x72) refers to testmain.o(.rodata.image_data_font_ubuntu_mono_24_0x72) for [Anonymous Symbol]
    testmain.o(.rodata.font_ubuntu_mono_24_0x73) refers to testmain.o(.rodata.image_data_font_ubuntu_mono_24_0x73) for [Anonymous Symbol]
    testmain.o(.rodata.font_ubuntu_mono_24_0x74) refers to testmain.o(.rodata.image_data_font_ubuntu_mono_24_0x74) for [Anonymous Symbol]
    testmain.o(.rodata.font_ubuntu_mono_24_0x75) refers to testmain.o(.rodata.image_data_font_ubuntu_mono_24_0x75) for [Anonymous Symbol]
    testmain.o(.rodata.font_ubuntu_mono_24_0x76) refers to testmain.o(.rodata.image_data_font_ubuntu_mono_24_0x76) for [Anonymous Symbol]
    testmain.o(.rodata.font_ubuntu_mono_24_0x77) refers to testmain.o(.rodata.image_data_font_ubuntu_mono_24_0x77) for [Anonymous Symbol]
    testmain.o(.rodata.font_ubuntu_mono_24_0x78) refers to testmain.o(.rodata.image_data_font_ubuntu_mono_24_0x78) for [Anonymous Symbol]
    testmain.o(.rodata.font_ubuntu_mono_24_0x79) refers to testmain.o(.rodata.image_data_font_ubuntu_mono_24_0x79) for [Anonymous Symbol]
    testmain.o(.rodata.font_ubuntu_mono_24_0x7a) refers to testmain.o(.rodata.image_data_font_ubuntu_mono_24_0x7a) for [Anonymous Symbol]
    testmain.o(.rodata.font_ubuntu_mono_24_0x7b) refers to testmain.o(.rodata.image_data_font_ubuntu_mono_24_0x7b) for [Anonymous Symbol]
    testmain.o(.rodata.font_ubuntu_mono_24_0x7c) refers to testmain.o(.rodata.image_data_font_ubuntu_mono_24_0x7c) for [Anonymous Symbol]
    testmain.o(.rodata.font_ubuntu_mono_24_0x7d) refers to testmain.o(.rodata.image_data_font_ubuntu_mono_24_0x7d) for [Anonymous Symbol]
    testmain.o(.rodata.font_ubuntu_mono_24_0x7e) refers to testmain.o(.rodata.image_data_font_ubuntu_mono_24_0x7e) for [Anonymous Symbol]
    hall.o(.text.hallEffect_pinInit) refers to hall.o(.text.__NVIC_EnableIRQ) for __NVIC_EnableIRQ
    hall.o(.ARM.exidx.text.hallEffect_pinInit) refers to hall.o(.text.hallEffect_pinInit) for [Anonymous Symbol]
    hall.o(.ARM.exidx.text.__NVIC_EnableIRQ) refers to hall.o(.text.__NVIC_EnableIRQ) for [Anonymous Symbol]
    timers.o(.ARM.exidx.text.timer_init) refers to timers.o(.text.timer_init) for [Anonymous Symbol]
    stepper.o(.ARM.exidx.text.stepper_init) refers to stepper.o(.text.stepper_init) for [Anonymous Symbol]
    stepper.o(.ARM.exidx.text.get_step) refers to stepper.o(.text.get_step) for [Anonymous Symbol]
    stepper.o(.ARM.exidx.text.set_step) refers to stepper.o(.text.set_step) for [Anonymous Symbol]
    stepper.o(.text.stepper_half_step) refers to stepper.o(.text.get_step) for get_step
    stepper.o(.text.stepper_half_step) refers to stepper.o(.text.set_step) for set_step
    stepper.o(.ARM.exidx.text.stepper_half_step) refers to stepper.o(.text.stepper_half_step) for [Anonymous Symbol]
    stepper.o(.text.stepper_full_step) refers to stepper.o(.text.get_step) for get_step
    stepper.o(.text.stepper_full_step) refers to stepper.o(.text.set_step) for set_step
    stepper.o(.ARM.exidx.text.stepper_full_step) refers to stepper.o(.text.stepper_full_step) for [Anonymous Symbol]
    i2c.o(.ARM.exidx.text.I2C_init) refers to i2c.o(.text.I2C_init) for [Anonymous Symbol]
    i2c.o(.ARM.exidx.text.I2C1_byteWrite) refers to i2c.o(.text.I2C1_byteWrite) for [Anonymous Symbol]
    i2c.o(.ARM.exidx.text.I2C1_byteRead) refers to i2c.o(.text.I2C1_byteRead) for [Anonymous Symbol]
    rotary_encoder.o(.ARM.exidx.text.Encoder_TIM_init) refers to rotary_encoder.o(.text.Encoder_TIM_init) for [Anonymous Symbol]
    rotary_encoder.o(.text.Encoder_init) refers to rotary_encoder.o(.text.Encoder_TIM_init) for Encoder_TIM_init
    rotary_encoder.o(.text.Encoder_init) refers to rotary_encoder.o(.text.__NVIC_EnableIRQ) for __NVIC_EnableIRQ
    rotary_encoder.o(.ARM.exidx.text.Encoder_init) refers to rotary_encoder.o(.text.Encoder_init) for [Anonymous Symbol]
    rotary_encoder.o(.ARM.exidx.text.__NVIC_EnableIRQ) refers to rotary_encoder.o(.text.__NVIC_EnableIRQ) for [Anonymous Symbol]
    btn.o(.ARM.exidx.text.BTN_init) refers to btn.o(.text.BTN_init) for [Anonymous Symbol]
    sonar.o(.ARM.exidx.text.sonar_gpio_init) refers to sonar.o(.text.sonar_gpio_init) for [Anonymous Symbol]
    sonar.o(.text.dist) refers to sonar.o(.bss.current) for current
    sonar.o(.text.dist) refers to sonar.o(.bss.last) for last
    sonar.o(.text.dist) refers to dflt_clz.o(x$fpl$dflt) for __aeabi_i2d
    sonar.o(.text.dist) refers to sonar.o(.bss.period) for period
    sonar.o(.ARM.exidx.text.dist) refers to sonar.o(.text.dist) for [Anonymous Symbol]
    servo.o(.text.TIM1_setup) refers to servo.o(.text.TIM_GPIO) for TIM_GPIO
    servo.o(.ARM.exidx.text.TIM1_setup) refers to servo.o(.text.TIM1_setup) for [Anonymous Symbol]
    servo.o(.ARM.exidx.text.TIM_GPIO) refers to servo.o(.text.TIM_GPIO) for [Anonymous Symbol]
    servo.o(.text.Timer6_Init) refers to servo.o(.text.__NVIC_EnableIRQ) for __NVIC_EnableIRQ
    servo.o(.ARM.exidx.text.Timer6_Init) refers to servo.o(.text.Timer6_Init) for [Anonymous Symbol]
    servo.o(.ARM.exidx.text.__NVIC_EnableIRQ) refers to servo.o(.text.__NVIC_EnableIRQ) for [Anonymous Symbol]
    servo.o(.ARM.exidx.text.Eye_Move_To) refers to servo.o(.text.Eye_Move_To) for [Anonymous Symbol]
    servo.o(.ARM.exidx.text.Eyelid_Move_To) refers to servo.o(.text.Eyelid_Move_To) for [Anonymous Symbol]
    servo.o(.ARM.exidx.text.Tongue_Move_To) refers to servo.o(.text.Tongue_Move_To) for [Anonymous Symbol]
    servo.o(.ARM.exidx.text.TIM1_CH1_Enable) refers to servo.o(.text.TIM1_CH1_Enable) for [Anonymous Symbol]
    servo.o(.ARM.exidx.text.TIM1_CH2_Enable) refers to servo.o(.text.TIM1_CH2_Enable) for [Anonymous Symbol]
    servo.o(.ARM.exidx.text.TIM1_CH3_Enable) refers to servo.o(.text.TIM1_CH3_Enable) for [Anonymous Symbol]
    servo.o(.ARM.exidx.text.TIM1_CH1_Disable) refers to servo.o(.text.TIM1_CH1_Disable) for [Anonymous Symbol]
    servo.o(.ARM.exidx.text.TIM1_CH2_Disable) refers to servo.o(.text.TIM1_CH2_Disable) for [Anonymous Symbol]
    servo.o(.ARM.exidx.text.TIM1_CH3_Disable) refers to servo.o(.text.TIM1_CH3_Disable) for [Anonymous Symbol]
    servo.o(.text.TIM6_DAC_IRQHandler) refers to servo.o(.bss.servo) for servo
    servo.o(.text.TIM6_DAC_IRQHandler) refers to servo.o(.text.TIM1_CH1_Enable) for TIM1_CH1_Enable
    servo.o(.text.TIM6_DAC_IRQHandler) refers to servo.o(.text.TIM1_CH2_Disable) for TIM1_CH2_Disable
    servo.o(.text.TIM6_DAC_IRQHandler) refers to servo.o(.text.TIM1_CH3_Disable) for TIM1_CH3_Disable
    servo.o(.text.TIM6_DAC_IRQHandler) refers to servo.o(.text.TIM1_CH1_Disable) for TIM1_CH1_Disable
    servo.o(.text.TIM6_DAC_IRQHandler) refers to servo.o(.text.TIM1_CH2_Enable) for TIM1_CH2_Enable
    servo.o(.text.TIM6_DAC_IRQHandler) refers to servo.o(.text.TIM1_CH3_Enable) for TIM1_CH3_Enable
    servo.o(.ARM.exidx.text.TIM6_DAC_IRQHandler) refers to servo.o(.text.TIM6_DAC_IRQHandler) for [Anonymous Symbol]
    adc.o(.ARM.exidx.text.adc_init) refers to adc.o(.text.adc_init) for [Anonymous Symbol]
    adc.o(.text.Read_ADC) refers to adc.o(.rodata.str1.1) for .L.str
    adc.o(.text.Read_ADC) refers to printf.o(.text) for printf
    adc.o(.text.Read_ADC) refers to dflt_clz.o(x$fpl$dflt) for __aeabi_i2d
    adc.o(.text.Read_ADC) refers to dmul.o(x$fpl$dmul) for __aeabi_dmul
    adc.o(.text.Read_ADC) refers to daddsub_clz.o(x$fpl$dadd) for __aeabi_dadd
    adc.o(.text.Read_ADC) refers to dfix.o(x$fpl$dfix) for __aeabi_d2iz
    adc.o(.ARM.exidx.text.Read_ADC) refers to adc.o(.text.Read_ADC) for [Anonymous Symbol]
    health_bar.o(.ARM.exidx.text.init_ShiftRegister) refers to health_bar.o(.text.init_ShiftRegister) for [Anonymous Symbol]
    health_bar.o(.text.HealthCurrent) refers to health_bar.o(.text.HealthClear) for HealthClear
    health_bar.o(.text.HealthCurrent) refers to health_bar.o(.data.health) for health
    health_bar.o(.ARM.exidx.text.HealthCurrent) refers to health_bar.o(.text.HealthCurrent) for [Anonymous Symbol]
    health_bar.o(.ARM.exidx.text.HealthClear) refers to health_bar.o(.text.HealthClear) for [Anonymous Symbol]
    health_bar.o(.text.HealthMinusMinus) refers to health_bar.o(.data.health) for health
    health_bar.o(.text.HealthMinusMinus) refers to health_bar.o(.text.HealthClear) for HealthClear
    health_bar.o(.ARM.exidx.text.HealthMinusMinus) refers to health_bar.o(.text.HealthMinusMinus) for [Anonymous Symbol]
    health_bar.o(.text.HealthPlusPlus) refers to health_bar.o(.data.health) for health
    health_bar.o(.text.HealthPlusPlus) refers to health_bar.o(.text.HealthClear) for HealthClear
    health_bar.o(.ARM.exidx.text.HealthPlusPlus) refers to health_bar.o(.text.HealthPlusPlus) for [Anonymous Symbol]
    health_bar.o(.text.HealthMax) refers to health_bar.o(.data.health) for health
    health_bar.o(.ARM.exidx.text.HealthMax) refers to health_bar.o(.text.HealthMax) for [Anonymous Symbol]
    health_bar.o(.text.tim5_init) refers to health_bar.o(.text.__NVIC_EnableIRQ) for __NVIC_EnableIRQ
    health_bar.o(.ARM.exidx.text.tim5_init) refers to health_bar.o(.text.tim5_init) for [Anonymous Symbol]
    health_bar.o(.ARM.exidx.text.__NVIC_EnableIRQ) refers to health_bar.o(.text.__NVIC_EnableIRQ) for [Anonymous Symbol]
    sevenseg.o(.text.Init_seq) refers to sevenseg.o(.text.sevenSeg_write) for sevenSeg_write
    sevenseg.o(.ARM.exidx.text.Init_seq) refers to sevenseg.o(.text.Init_seq) for [Anonymous Symbol]
    sevenseg.o(.ARM.exidx.text.sevenSeg_write) refers to sevenseg.o(.text.sevenSeg_write) for [Anonymous Symbol]
    sevenseg.o(.ARM.exidx.text.sevenSeg_init) refers to sevenseg.o(.text.sevenSeg_init) for [Anonymous Symbol]
    piezo.o(.text.Timer7_Init) refers to piezo.o(.text.__NVIC_EnableIRQ) for __NVIC_EnableIRQ
    piezo.o(.ARM.exidx.text.Timer7_Init) refers to piezo.o(.text.Timer7_Init) for [Anonymous Symbol]
    piezo.o(.ARM.exidx.text.__NVIC_EnableIRQ) refers to piezo.o(.text.__NVIC_EnableIRQ) for [Anonymous Symbol]
    piezo.o(.text.Buzzer_Init) refers to piezo.o(.text.Timer8_Init) for Timer8_Init
    piezo.o(.ARM.exidx.text.Buzzer_Init) refers to piezo.o(.text.Buzzer_Init) for [Anonymous Symbol]
    piezo.o(.ARM.exidx.text.Timer8_Init) refers to piezo.o(.text.Timer8_Init) for [Anonymous Symbol]
    piezo.o(.text.Play_Tone_1) refers to piezo.o(.data.tone_state) for tone_state
    piezo.o(.ARM.exidx.text.Play_Tone_1) refers to piezo.o(.text.Play_Tone_1) for [Anonymous Symbol]
    piezo.o(.text.Play_Tone_2) refers to piezo.o(.data.tone_state) for tone_state
    piezo.o(.ARM.exidx.text.Play_Tone_2) refers to piezo.o(.text.Play_Tone_2) for [Anonymous Symbol]
    piezo.o(.text.Play_Tone_3) refers to piezo.o(.data.tone_state) for tone_state
    piezo.o(.ARM.exidx.text.Play_Tone_3) refers to piezo.o(.text.Play_Tone_3) for [Anonymous Symbol]
    piezo.o(.text.Play_Tone_4) refers to piezo.o(.data.tone_state) for tone_state
    piezo.o(.ARM.exidx.text.Play_Tone_4) refers to piezo.o(.text.Play_Tone_4) for [Anonymous Symbol]
    piezo.o(.ARM.exidx.text.Buzzer_Stop) refers to piezo.o(.text.Buzzer_Stop) for [Anonymous Symbol]
    piezo.o(.text.TIM7_IRQHandler) refers to piezo.o(.bss.milliseconds) for milliseconds
    piezo.o(.text.TIM7_IRQHandler) refers to piezo.o(.data.tone_state) for tone_state
    piezo.o(.text.TIM7_IRQHandler) refers to piezo.o(.text.Timer8_Init) for Timer8_Init
    piezo.o(.text.TIM7_IRQHandler) refers to piezo.o(.text.Buzzer_Stop) for Buzzer_Stop
    piezo.o(.ARM.exidx.text.TIM7_IRQHandler) refers to piezo.o(.text.TIM7_IRQHandler) for [Anonymous Symbol]
    piezo.o(.text.millis) refers to piezo.o(.bss.milliseconds) for milliseconds
    piezo.o(.ARM.exidx.text.millis) refers to piezo.o(.text.millis) for [Anonymous Symbol]
    retarget_io.o(.ARM.exidx.text.ITM_SendChar) refers to retarget_io.o(.text.ITM_SendChar) for [Anonymous Symbol]
    retarget_io.o(.text.ITM_ReceiveChar) refers to retarget_io.o(.data.ITM_RxBuffer) for ITM_RxBuffer
    retarget_io.o(.ARM.exidx.text.ITM_ReceiveChar) refers to retarget_io.o(.text.ITM_ReceiveChar) for [Anonymous Symbol]
    retarget_io.o(.text._sys_open) refers to retarget_io.o(.rodata.str1.1) for .L.str
    retarget_io.o(.text._sys_open) refers to strcmpv7em.o(.text) for strcmp
    retarget_io.o(.ARM.exidx.text._sys_open) refers to retarget_io.o(.text._sys_open) for [Anonymous Symbol]
    retarget_io.o(.ARM.exidx.text._sys_close) refers to retarget_io.o(.text._sys_close) for [Anonymous Symbol]
    retarget_io.o(.text._sys_write) refers to retarget_io.o(.text.stdout_putchar) for stdout_putchar
    retarget_io.o(.text._sys_write) refers to retarget_io.o(.text.stderr_putchar) for stderr_putchar
    retarget_io.o(.ARM.exidx.text._sys_write) refers to retarget_io.o(.text._sys_write) for [Anonymous Symbol]
    retarget_io.o(.text.stdout_putchar) refers to retarget_io.o(.text.ITM_SendChar) for ITM_SendChar
    retarget_io.o(.ARM.exidx.text.stdout_putchar) refers to retarget_io.o(.text.stdout_putchar) for [Anonymous Symbol]
    retarget_io.o(.text.stderr_putchar) refers to retarget_io.o(.text.ITM_SendChar) for ITM_SendChar
    retarget_io.o(.ARM.exidx.text.stderr_putchar) refers to retarget_io.o(.text.stderr_putchar) for [Anonymous Symbol]
    retarget_io.o(.text._sys_read) refers to retarget_io.o(.text.stdin_getchar) for stdin_getchar
    retarget_io.o(.ARM.exidx.text._sys_read) refers to retarget_io.o(.text._sys_read) for [Anonymous Symbol]
    retarget_io.o(.text.stdin_getchar) refers to retarget_io.o(.text.ITM_ReceiveChar) for ITM_ReceiveChar
    retarget_io.o(.ARM.exidx.text.stdin_getchar) refers to retarget_io.o(.text.stdin_getchar) for [Anonymous Symbol]
    retarget_io.o(.ARM.exidx.text._sys_istty) refers to retarget_io.o(.text._sys_istty) for [Anonymous Symbol]
    retarget_io.o(.ARM.exidx.text._sys_seek) refers to retarget_io.o(.text._sys_seek) for [Anonymous Symbol]
    retarget_io.o(.ARM.exidx.text._sys_flen) refers to retarget_io.o(.text._sys_flen) for [Anonymous Symbol]
    startup_stm32f446xx.o(STACK) refers (Special) to heapauxi.o(.text) for __use_two_region_memory
    startup_stm32f446xx.o(HEAP) refers (Special) to heapauxi.o(.text) for __use_two_region_memory
    startup_stm32f446xx.o(RESET) refers (Special) to heapauxi.o(.text) for __use_two_region_memory
    startup_stm32f446xx.o(RESET) refers to startup_stm32f446xx.o(STACK) for __initial_sp
    startup_stm32f446xx.o(RESET) refers to startup_stm32f446xx.o(.text) for Reset_Handler
    startup_stm32f446xx.o(RESET) refers to testmain.o(.text.EXTI4_IRQHandler) for EXTI4_IRQHandler
    startup_stm32f446xx.o(RESET) refers to testmain.o(.text.EXTI15_10_IRQHandler) for EXTI15_10_IRQHandler
    startup_stm32f446xx.o(RESET) refers to testmain.o(.text.TIM5_IRQHandler) for TIM5_IRQHandler
    startup_stm32f446xx.o(RESET) refers to servo.o(.text.TIM6_DAC_IRQHandler) for TIM6_DAC_IRQHandler
    startup_stm32f446xx.o(RESET) refers to piezo.o(.text.TIM7_IRQHandler) for TIM7_IRQHandler
    startup_stm32f446xx.o(.text) refers (Special) to heapauxi.o(.text) for __use_two_region_memory
    startup_stm32f446xx.o(.text) refers to system_stm32f4xx.o(.text.SystemInit) for SystemInit
    startup_stm32f446xx.o(.text) refers to __main.o(!!!main) for __main
    startup_stm32f446xx.o(.text) refers to startup_stm32f446xx.o(HEAP) for Heap_Mem
    startup_stm32f446xx.o(.text) refers to startup_stm32f446xx.o(STACK) for Stack_Mem
    system_stm32f4xx.o(.ARM.exidx.text.SystemInit) refers to system_stm32f4xx.o(.text.SystemInit) for [Anonymous Symbol]
    system_stm32f4xx.o(.text.SystemCoreClockUpdate) refers to system_stm32f4xx.o(.data.SystemCoreClock) for SystemCoreClock
    system_stm32f4xx.o(.text.SystemCoreClockUpdate) refers to system_stm32f4xx.o(.rodata.AHBPrescTable) for AHBPrescTable
    system_stm32f4xx.o(.ARM.exidx.text.SystemCoreClockUpdate) refers to system_stm32f4xx.o(.text.SystemCoreClockUpdate) for [Anonymous Symbol]
    printf.o(.text) refers (Special) to _printf_a.o(.ARM.Collect$$_printf_percent$$00000006) for _printf_a
    printf.o(.text) refers (Special) to _printf_c.o(.ARM.Collect$$_printf_percent$$00000013) for _printf_c
    printf.o(.text) refers (Special) to _printf_charcount.o(.text) for _printf_charcount
    printf.o(.text) refers (Special) to _printf_d.o(.ARM.Collect$$_printf_percent$$00000009) for _printf_d
    printf.o(.text) refers (Special) to _printf_e.o(.ARM.Collect$$_printf_percent$$00000004) for _printf_e
    printf.o(.text) refers (Special) to _printf_f.o(.ARM.Collect$$_printf_percent$$00000003) for _printf_f
    printf.o(.text) refers (Special) to printf1.o(x$fpl$printf1) for _printf_fp_dec
    printf.o(.text) refers (Special) to printf2.o(x$fpl$printf2) for _printf_fp_hex
    printf.o(.text) refers (Special) to _printf_g.o(.ARM.Collect$$_printf_percent$$00000005) for _printf_g
    printf.o(.text) refers (Special) to _printf_i.o(.ARM.Collect$$_printf_percent$$00000008) for _printf_i
    printf.o(.text) refers (Special) to _printf_dec.o(.text) for _printf_int_dec
    printf.o(.text) refers (Special) to _printf_l.o(.ARM.Collect$$_printf_percent$$00000012) for _printf_l
    printf.o(.text) refers (Special) to _printf_lc.o(.ARM.Collect$$_printf_percent$$00000015) for _printf_lc
    printf.o(.text) refers (Special) to _printf_ll.o(.ARM.Collect$$_printf_percent$$00000007) for _printf_ll
    printf.o(.text) refers (Special) to _printf_lld.o(.ARM.Collect$$_printf_percent$$0000000E) for _printf_lld
    printf.o(.text) refers (Special) to _printf_lli.o(.ARM.Collect$$_printf_percent$$0000000D) for _printf_lli
    printf.o(.text) refers (Special) to _printf_llo.o(.ARM.Collect$$_printf_percent$$00000010) for _printf_llo
    printf.o(.text) refers (Special) to _printf_llu.o(.ARM.Collect$$_printf_percent$$0000000F) for _printf_llu
    printf.o(.text) refers (Special) to _printf_llx.o(.ARM.Collect$$_printf_percent$$00000011) for _printf_llx
    printf.o(.text) refers (Special) to _printf_longlong_dec.o(.text) for _printf_longlong_dec
    printf.o(.text) refers (Special) to _printf_hex_int_ll_ptr.o(.text) for _printf_longlong_hex
    printf.o(.text) refers (Special) to _printf_oct_int_ll.o(.text) for _printf_longlong_oct
    printf.o(.text) refers (Special) to _printf_ls.o(.ARM.Collect$$_printf_percent$$00000016) for _printf_ls
    printf.o(.text) refers (Special) to _printf_n.o(.ARM.Collect$$_printf_percent$$00000001) for _printf_n
    printf.o(.text) refers (Special) to _printf_o.o(.ARM.Collect$$_printf_percent$$0000000B) for _printf_o
    printf.o(.text) refers (Special) to _printf_p.o(.ARM.Collect$$_printf_percent$$00000002) for _printf_p
    printf.o(.text) refers (Special) to _printf_percent.o(.ARM.Collect$$_printf_percent$$00000000) for _printf_percent
    printf.o(.text) refers (Special) to _printf_pad.o(.text) for _printf_post_padding
    printf.o(.text) refers (Special) to _printf_s.o(.ARM.Collect$$_printf_percent$$00000014) for _printf_s
    printf.o(.text) refers (Special) to _printf_str.o(.text) for _printf_str
    printf.o(.text) refers (Special) to _printf_truncate.o(.text) for _printf_truncate_signed
    printf.o(.text) refers (Special) to _printf_u.o(.ARM.Collect$$_printf_percent$$0000000A) for _printf_u
    printf.o(.text) refers (Special) to _printf_wctomb.o(.text) for _printf_wctomb
    printf.o(.text) refers (Special) to _printf_x.o(.ARM.Collect$$_printf_percent$$0000000C) for _printf_x
    printf.o(.text) refers to _printf_char_file.o(.text) for _printf_char_file
    printf.o(.text) refers to stdio_streams.o(.bss) for __stdout
    rand.o(.emb_text) refers (Special) to libinit2.o(.ARM.Collect$$libinit$$0000000F) for __rt_lib_init_rand_2
    rand.o(.emb_text) refers to rand.o(.text) for _rand_init
    rand.o(.emb_text) refers to rand.o(.bss) for _random_number_data
    rand.o(.text) refers (Special) to libinit2.o(.ARM.Collect$$libinit$$0000000F) for __rt_lib_init_rand_2
    rand.o(.text) refers to rand.o(.bss) for .bss
    rand.o(.bss) refers (Special) to libinit2.o(.ARM.Collect$$libinit$$0000000F) for __rt_lib_init_rand_2
    __main.o(!!!main) refers to __rtentry.o(.ARM.Collect$$rtentry$$00000000) for __rt_entry
    daddsub_clz.o(x$fpl$dadd) refers (Special) to usenofp.o(x$fpl$usenofp) for __I$use$fp
    daddsub_clz.o(x$fpl$dadd) refers to daddsub_clz.o(x$fpl$dsub) for _dsub1
    daddsub_clz.o(x$fpl$dadd) refers to dretinf.o(x$fpl$dretinf) for __fpl_dretinf
    daddsub_clz.o(x$fpl$dadd) refers to dnaninf.o(x$fpl$dnaninf) for __fpl_dnaninf
    daddsub_clz.o(x$fpl$drsb) refers (Special) to usenofp.o(x$fpl$usenofp) for __I$use$fp
    daddsub_clz.o(x$fpl$drsb) refers to daddsub_clz.o(x$fpl$dadd) for _dadd1
    daddsub_clz.o(x$fpl$drsb) refers to daddsub_clz.o(x$fpl$dsub) for _dsub1
    daddsub_clz.o(x$fpl$dsub) refers (Special) to usenofp.o(x$fpl$usenofp) for __I$use$fp
    daddsub_clz.o(x$fpl$dsub) refers to daddsub_clz.o(x$fpl$dadd) for _dadd1
    daddsub_clz.o(x$fpl$dsub) refers to dnaninf.o(x$fpl$dnaninf) for __fpl_dnaninf
    dfix.o(x$fpl$dfix) refers (Special) to usenofp.o(x$fpl$usenofp) for __I$use$fp
    dfix.o(x$fpl$dfix) refers to dnaninf.o(x$fpl$dnaninf) for __fpl_dnaninf
    dfix.o(x$fpl$dfixr) refers (Special) to usenofp.o(x$fpl$usenofp) for __I$use$fp
    dfix.o(x$fpl$dfixr) refers to dnaninf.o(x$fpl$dnaninf) for __fpl_dnaninf
    dflt_clz.o(x$fpl$dfltu) refers (Special) to usenofp.o(x$fpl$usenofp) for __I$use$fp
    dflt_clz.o(x$fpl$dflt) refers (Special) to usenofp.o(x$fpl$usenofp) for __I$use$fp
    dflt_clz.o(x$fpl$dfltn) refers (Special) to usenofp.o(x$fpl$usenofp) for __I$use$fp
    dmul.o(x$fpl$dmul) refers (Special) to usenofp.o(x$fpl$usenofp) for __I$use$fp
    dmul.o(x$fpl$dmul) refers to dretinf.o(x$fpl$dretinf) for __fpl_dretinf
    dmul.o(x$fpl$dmul) refers to dnaninf.o(x$fpl$dnaninf) for __fpl_dnaninf
    __rtentry.o(.ARM.Collect$$rtentry$$00000000) refers (Special) to __rtentry2.o(.ARM.Collect$$rtentry$$0000000A) for __rt_entry_li
    __rtentry.o(.ARM.Collect$$rtentry$$00000000) refers (Special) to __rtentry2.o(.ARM.Collect$$rtentry$$0000000D) for __rt_entry_main
    __rtentry.o(.ARM.Collect$$rtentry$$00000000) refers (Special) to __rtentry2.o(.ARM.Collect$$rtentry$$0000000C) for __rt_entry_postli_1
    __rtentry.o(.ARM.Collect$$rtentry$$00000000) refers (Special) to __rtentry2.o(.ARM.Collect$$rtentry$$00000009) for __rt_entry_postsh_1
    __rtentry.o(.ARM.Collect$$rtentry$$00000000) refers (Special) to __rtentry2.o(.ARM.Collect$$rtentry$$00000002) for __rt_entry_presh_1
    __rtentry.o(.ARM.Collect$$rtentry$$00000000) refers (Special) to __rtentry4.o(.ARM.Collect$$rtentry$$00000004) for __rt_entry_sh
    __printf.o(.text) refers to _printf_percent.o(.ARM.Collect$$_printf_percent$$00000000) for _printf_percent
    _printf_str.o(.text) refers (Special) to _printf_char.o(.text) for _printf_cs_common
    _printf_str.o(.text) refers (Weak) to _printf_pad.o(.text) for _printf_pre_padding
    _printf_str.o(.text) refers (Weak) to _printf_pad.o(.text) for _printf_post_padding
    _printf_dec.o(.text) refers (Weak) to _printf_truncate.o(.text) for _printf_truncate_signed
    _printf_dec.o(.text) refers (Weak) to _printf_truncate.o(.text) for _printf_truncate_unsigned
    _printf_dec.o(.text) refers to _printf_intcommon.o(.text) for _printf_int_common
    _printf_char_file.o(.text) refers to _printf_char_common.o(.text) for _printf_char_common
    _printf_char_file.o(.text) refers to ferror.o(.text) for ferror
    _printf_char_file.o(.text) refers to fputc.o(i.fputc) for fputc
    _printf_wctomb.o(.text) refers (Special) to _printf_wchar.o(.text) for _printf_lcs_common
    _printf_wctomb.o(.text) refers to _c16rtomb.o(.text) for _wcrtomb
    _printf_wctomb.o(.text) refers (Weak) to _printf_pad.o(.text) for _printf_pre_padding
    _printf_wctomb.o(.text) refers (Weak) to _printf_pad.o(.text) for _printf_post_padding
    _printf_wctomb.o(.text) refers to _printf_wctomb.o(.constdata) for .constdata
    _printf_wctomb.o(.constdata) refers (Special) to _printf_wchar.o(.text) for _printf_lcs_common
    _printf_longlong_dec.o(.text) refers to lludiv10.o(.text) for _ll_udiv10
    _printf_longlong_dec.o(.text) refers to _printf_intcommon.o(.text) for _printf_int_common
    _printf_oct_ll.o(.text) refers to _printf_intcommon.o(.text) for _printf_int_common
    _printf_oct_int.o(.text) refers (Weak) to _printf_truncate.o(.text) for _printf_truncate_unsigned
    _printf_oct_int.o(.text) refers to _printf_intcommon.o(.text) for _printf_int_common
    _printf_oct_int_ll.o(.text) refers to _printf_intcommon.o(.text) for _printf_int_common
    _printf_oct_int_ll.o(.text) refers (Weak) to _printf_truncate.o(.text) for _printf_truncate_unsigned
    _printf_hex_ll.o(.text) refers to _printf_intcommon.o(.text) for _printf_int_common
    _printf_hex_ll.o(.text) refers to _printf_hex_ll.o(.constdata) for .constdata
    _printf_hex_int.o(.text) refers (Weak) to _printf_truncate.o(.text) for _printf_truncate_unsigned
    _printf_hex_int.o(.text) refers to _printf_intcommon.o(.text) for _printf_int_common
    _printf_hex_int.o(.text) refers to _printf_hex_int.o(.constdata) for .constdata
    _printf_hex_int_ll.o(.text) refers to _printf_intcommon.o(.text) for _printf_int_common
    _printf_hex_int_ll.o(.text) refers (Weak) to _printf_truncate.o(.text) for _printf_truncate_unsigned
    _printf_hex_int_ll.o(.text) refers to _printf_hex_int_ll.o(.constdata) for .constdata
    _printf_hex_ptr.o(.text) refers to _printf_intcommon.o(.text) for _printf_int_common
    _printf_hex_ptr.o(.text) refers to _printf_hex_ptr.o(.constdata) for .constdata
    _printf_hex_int_ptr.o(.text) refers to _printf_intcommon.o(.text) for _printf_int_common
    _printf_hex_int_ptr.o(.text) refers (Weak) to _printf_truncate.o(.text) for _printf_truncate_unsigned
    _printf_hex_int_ptr.o(.text) refers to _printf_hex_int_ptr.o(.constdata) for .constdata
    _printf_hex_ll_ptr.o(.text) refers to _printf_intcommon.o(.text) for _printf_int_common
    _printf_hex_ll_ptr.o(.text) refers to _printf_hex_ll_ptr.o(.constdata) for .constdata
    _printf_hex_int_ll_ptr.o(.text) refers to _printf_intcommon.o(.text) for _printf_int_common
    _printf_hex_int_ll_ptr.o(.text) refers (Weak) to _printf_truncate.o(.text) for _printf_truncate_unsigned
    _printf_hex_int_ll_ptr.o(.text) refers to _printf_hex_int_ll_ptr.o(.constdata) for .constdata
    __printf_flags.o(.text) refers to _printf_percent.o(.ARM.Collect$$_printf_percent$$00000000) for _printf_percent
    __printf_flags.o(.text) refers to __printf_flags.o(.constdata) for .constdata
    __printf_ss.o(.text) refers to _printf_percent.o(.ARM.Collect$$_printf_percent$$00000000) for _printf_percent
    __printf_flags_ss.o(.text) refers to _printf_percent.o(.ARM.Collect$$_printf_percent$$00000000) for _printf_percent
    __printf_flags_ss.o(.text) refers to __printf_flags_ss.o(.constdata) for .constdata
    __printf_wp.o(.text) refers to __printf_wp.o(i._is_digit) for _is_digit
    __printf_wp.o(.text) refers to _printf_percent.o(.ARM.Collect$$_printf_percent$$00000000) for _printf_percent
    __printf_flags_wp.o(.text) refers to __printf_wp.o(i._is_digit) for _is_digit
    __printf_flags_wp.o(.text) refers to _printf_percent.o(.ARM.Collect$$_printf_percent$$00000000) for _printf_percent
    __printf_flags_wp.o(.text) refers to __printf_flags_wp.o(.constdata) for .constdata
    __printf_ss_wp.o(.text) refers to __printf_wp.o(i._is_digit) for _is_digit
    __printf_ss_wp.o(.text) refers to _printf_percent.o(.ARM.Collect$$_printf_percent$$00000000) for _printf_percent
    __printf_flags_ss_wp.o(.text) refers to __printf_wp.o(i._is_digit) for _is_digit
    __printf_flags_ss_wp.o(.text) refers to _printf_percent.o(.ARM.Collect$$_printf_percent$$00000000) for _printf_percent
    __printf_flags_ss_wp.o(.text) refers to __printf_flags_ss_wp.o(.constdata) for .constdata
    _printf_c.o(.ARM.Collect$$_printf_percent$$00000013) refers (Weak) to _printf_char.o(.text) for _printf_char
    _printf_s.o(.ARM.Collect$$_printf_percent$$00000014) refers (Weak) to _printf_char.o(.text) for _printf_string
    _printf_n.o(.ARM.Collect$$_printf_percent$$00000001) refers (Weak) to _printf_charcount.o(.text) for _printf_charcount
    _printf_x.o(.ARM.Collect$$_printf_percent$$0000000C) refers (Weak) to _printf_hex_int_ll_ptr.o(.text) for _printf_int_hex
    _printf_p.o(.ARM.Collect$$_printf_percent$$00000002) refers (Weak) to _printf_hex_int_ll_ptr.o(.text) for _printf_hex_ptr
    _printf_o.o(.ARM.Collect$$_printf_percent$$0000000B) refers (Weak) to _printf_oct_int_ll.o(.text) for _printf_int_oct
    _printf_i.o(.ARM.Collect$$_printf_percent$$00000008) refers (Weak) to _printf_dec.o(.text) for _printf_int_dec
    _printf_d.o(.ARM.Collect$$_printf_percent$$00000009) refers (Weak) to _printf_dec.o(.text) for _printf_int_dec
    _printf_u.o(.ARM.Collect$$_printf_percent$$0000000A) refers (Weak) to _printf_dec.o(.text) for _printf_int_dec
    _printf_f.o(.ARM.Collect$$_printf_percent$$00000003) refers (Weak) to printf1.o(x$fpl$printf1) for _printf_fp_dec
    _printf_e.o(.ARM.Collect$$_printf_percent$$00000004) refers (Weak) to printf1.o(x$fpl$printf1) for _printf_fp_dec
    _printf_g.o(.ARM.Collect$$_printf_percent$$00000005) refers (Weak) to printf1.o(x$fpl$printf1) for _printf_fp_dec
    _printf_a.o(.ARM.Collect$$_printf_percent$$00000006) refers (Weak) to printf2.o(x$fpl$printf2) for _printf_fp_hex
    _printf_percent.o(.ARM.Collect$$_printf_percent$$00000000) refers (Special) to _printf_percent_end.o(.ARM.Collect$$_printf_percent$$00000017) for _printf_percent_end
    _printf_lli.o(.ARM.Collect$$_printf_percent$$0000000D) refers (Special) to _printf_ll.o(.ARM.Collect$$_printf_percent$$00000007) for _printf_ll
    _printf_lli.o(.ARM.Collect$$_printf_percent$$0000000D) refers (Weak) to _printf_longlong_dec.o(.text) for _printf_longlong_dec
    _printf_lld.o(.ARM.Collect$$_printf_percent$$0000000E) refers (Special) to _printf_ll.o(.ARM.Collect$$_printf_percent$$00000007) for _printf_ll
    _printf_lld.o(.ARM.Collect$$_printf_percent$$0000000E) refers (Weak) to _printf_longlong_dec.o(.text) for _printf_longlong_dec
    _printf_llu.o(.ARM.Collect$$_printf_percent$$0000000F) refers (Special) to _printf_ll.o(.ARM.Collect$$_printf_percent$$00000007) for _printf_ll
    _printf_llu.o(.ARM.Collect$$_printf_percent$$0000000F) refers (Weak) to _printf_longlong_dec.o(.text) for _printf_longlong_dec
    _printf_lc.o(.ARM.Collect$$_printf_percent$$00000015) refers (Special) to _printf_l.o(.ARM.Collect$$_printf_percent$$00000012) for _printf_l
    _printf_lc.o(.ARM.Collect$$_printf_percent$$00000015) refers (Weak) to _printf_wchar.o(.text) for _printf_wchar
    _printf_ls.o(.ARM.Collect$$_printf_percent$$00000016) refers (Special) to _printf_l.o(.ARM.Collect$$_printf_percent$$00000012) for _printf_l
    _printf_ls.o(.ARM.Collect$$_printf_percent$$00000016) refers (Weak) to _printf_wchar.o(.text) for _printf_wstring
    _printf_llo.o(.ARM.Collect$$_printf_percent$$00000010) refers (Special) to _printf_ll.o(.ARM.Collect$$_printf_percent$$00000007) for _printf_ll
    _printf_llo.o(.ARM.Collect$$_printf_percent$$00000010) refers (Weak) to _printf_oct_int_ll.o(.text) for _printf_ll_oct
    _printf_llx.o(.ARM.Collect$$_printf_percent$$00000011) refers (Special) to _printf_ll.o(.ARM.Collect$$_printf_percent$$00000007) for _printf_ll
    _printf_llx.o(.ARM.Collect$$_printf_percent$$00000011) refers (Weak) to _printf_hex_int_ll_ptr.o(.text) for _printf_ll_hex
    stdio_streams.o(.bss) refers (Special) to initio.o(.text) for _initio
    stdio_streams.o(.bss) refers (Special) to initio.o(.text) for _initio
    stdio_streams.o(.bss) refers (Special) to initio.o(.text) for _initio
    stdio_streams.o(.data) refers (Special) to initio.o(.text) for _initio
    stdio_streams.o(.data) refers (Special) to initio.o(.text) for _initio
    stdio_streams.o(.data) refers (Special) to initio.o(.text) for _initio
    libinit2.o(.ARM.Collect$$libinit$$00000001) refers to fpinit.o(x$fpl$fpinit) for _fp_init
    libinit2.o(.ARM.Collect$$libinit$$00000007) refers (Weak) to init_alloc.o(.text) for _init_alloc
    libinit2.o(.ARM.Collect$$libinit$$0000000F) refers (Weak) to rand.o(.text) for _rand_init
    libinit2.o(.ARM.Collect$$libinit$$00000011) refers (Weak) to rt_locale_intlibspace.o(.text) for __rt_locale
    libinit2.o(.ARM.Collect$$libinit$$00000012) refers to libinit2.o(.ARM.Collect$$libinit$$00000011) for .ARM.Collect$$libinit$$00000011
    libinit2.o(.ARM.Collect$$libinit$$00000014) refers to libinit2.o(.ARM.Collect$$libinit$$00000011) for .ARM.Collect$$libinit$$00000011
    libinit2.o(.ARM.Collect$$libinit$$00000014) refers (Weak) to lc_ctype_c.o(locale$$code) for _get_lc_ctype
    libinit2.o(.ARM.Collect$$libinit$$00000016) refers to libinit2.o(.ARM.Collect$$libinit$$00000011) for .ARM.Collect$$libinit$$00000011
    libinit2.o(.ARM.Collect$$libinit$$00000018) refers to libinit2.o(.ARM.Collect$$libinit$$00000011) for .ARM.Collect$$libinit$$00000011
    libinit2.o(.ARM.Collect$$libinit$$00000018) refers (Weak) to lc_numeric_c.o(locale$$code) for _get_lc_numeric
    libinit2.o(.ARM.Collect$$libinit$$0000001A) refers to libinit2.o(.ARM.Collect$$libinit$$00000011) for .ARM.Collect$$libinit$$00000011
    libinit2.o(.ARM.Collect$$libinit$$00000026) refers (Weak) to initio.o(.text) for _initio
    libinit2.o(.ARM.Collect$$libinit$$00000028) refers to argv_veneer.o(.emb_text) for __ARM_argv_veneer
    libinit2.o(.ARM.Collect$$libinit$$00000029) refers to argv_veneer.o(.emb_text) for __ARM_argv_veneer
    dnaninf.o(x$fpl$dnaninf) refers (Special) to usenofp.o(x$fpl$usenofp) for __I$use$fp
    dretinf.o(x$fpl$dretinf) refers (Special) to usenofp.o(x$fpl$usenofp) for __I$use$fp
    printf1.o(x$fpl$printf1) refers to _printf_fp_dec.o(.text) for _printf_fp_dec_real
    printf2.o(x$fpl$printf2) refers to _printf_fp_hex.o(.text) for _printf_fp_hex_real
    printf2b.o(x$fpl$printf2) refers to _printf_fp_hex.o(.text) for _printf_fp_hex_real
    __rtentry2.o(.ARM.Collect$$rtentry$$00000008) refers to boardinit2.o(.text) for _platform_post_stackheap_init
    __rtentry2.o(.ARM.Collect$$rtentry$$0000000A) refers to libinit.o(.ARM.Collect$$libinit$$00000000) for __rt_lib_init
    __rtentry2.o(.ARM.Collect$$rtentry$$0000000B) refers to boardinit3.o(.text) for _platform_post_lib_init
    __rtentry2.o(.ARM.Collect$$rtentry$$0000000D) refers to testmain.o(.text.main) for main
    __rtentry2.o(.ARM.Collect$$rtentry$$0000000D) refers to exit.o(.text) for exit
    __rtentry2.o(.ARM.exidx) refers to __rtentry2.o(.ARM.Collect$$rtentry$$00000001) for .ARM.Collect$$rtentry$$00000001
    __rtentry2.o(.ARM.exidx) refers to __rtentry2.o(.ARM.Collect$$rtentry$$00000008) for .ARM.Collect$$rtentry$$00000008
    __rtentry2.o(.ARM.exidx) refers to __rtentry2.o(.ARM.Collect$$rtentry$$0000000A) for .ARM.Collect$$rtentry$$0000000A
    __rtentry2.o(.ARM.exidx) refers to __rtentry2.o(.ARM.Collect$$rtentry$$0000000B) for .ARM.Collect$$rtentry$$0000000B
    __rtentry2.o(.ARM.exidx) refers to __rtentry2.o(.ARM.Collect$$rtentry$$0000000D) for .ARM.Collect$$rtentry$$0000000D
    __rtentry4.o(.ARM.Collect$$rtentry$$00000004) refers to sys_stackheap_outer.o(.text) for __user_setup_stackheap
    __rtentry4.o(.ARM.exidx) refers to __rtentry4.o(.ARM.Collect$$rtentry$$00000004) for .ARM.Collect$$rtentry$$00000004
    _printf_intcommon.o(.text) refers (Weak) to _printf_pad.o(.text) for _printf_pre_padding
    _printf_intcommon.o(.text) refers (Weak) to _printf_pad.o(.text) for _printf_pre_padding
    _printf_intcommon.o(.text) refers (Weak) to _printf_pad.o(.text) for _printf_post_padding
    _printf_fp_dec.o(.text) refers (Special) to usenofp.o(x$fpl$usenofp) for __I$use$fp
    _printf_fp_dec.o(.text) refers (Special) to lc_numeric_c.o(locale$$code) for _get_lc_numeric
    _printf_fp_dec.o(.text) refers to bigflt0.o(.text) for _btod_etento
    _printf_fp_dec.o(.text) refers to btod.o(CL$$btod_d2e) for _btod_d2e
    _printf_fp_dec.o(.text) refers to btod.o(CL$$btod_ediv) for _btod_ediv
    _printf_fp_dec.o(.text) refers to btod.o(CL$$btod_emul) for _btod_emul
    _printf_fp_dec.o(.text) refers to lludiv10.o(.text) for _ll_udiv10
    _printf_fp_dec.o(.text) refers to fpclassify.o(i.__ARM_fpclassify) for __ARM_fpclassify
    _printf_fp_dec.o(.text) refers to _printf_fp_infnan.o(.text) for _printf_fp_infnan
    _printf_fp_dec.o(.text) refers (Weak) to _printf_pad.o(.text) for _printf_pre_padding
    _printf_fp_dec.o(.text) refers (Weak) to _printf_pad.o(.text) for _printf_pre_padding
    _printf_fp_dec.o(.text) refers to rt_locale_intlibspace.o(.text) for __rt_locale
    _printf_fp_dec.o(.text) refers (Weak) to _printf_pad.o(.text) for _printf_post_padding
    _printf_fp_dec_accurate.o(.text) refers (Special) to usenofp.o(x$fpl$usenofp) for __I$use$fp
    _printf_fp_dec_accurate.o(.text) refers (Special) to lc_numeric_c.o(locale$$code) for _get_lc_numeric
    _printf_fp_dec_accurate.o(.text) refers to btod_accurate.o(.text) for _btod_main
    _printf_fp_dec_accurate.o(.text) refers to fpclassify.o(i.__ARM_fpclassify) for __ARM_fpclassify
    _printf_fp_dec_accurate.o(.text) refers to _printf_fp_infnan.o(.text) for _printf_fp_infnan
    _printf_fp_dec_accurate.o(.text) refers (Weak) to _printf_pad.o(.text) for _printf_pre_padding
    _printf_fp_dec_accurate.o(.text) refers (Weak) to _printf_pad.o(.text) for _printf_pre_padding
    _printf_fp_dec_accurate.o(.text) refers to rt_locale_intlibspace.o(.text) for __rt_locale
    _printf_fp_dec_accurate.o(.text) refers (Weak) to _printf_pad.o(.text) for _printf_post_padding
    _printf_fp_hex.o(.text) refers (Special) to usenofp.o(x$fpl$usenofp) for __I$use$fp
    _printf_fp_hex.o(.text) refers to fpclassify.o(i.__ARM_fpclassify) for __ARM_fpclassify
    _printf_fp_hex.o(.text) refers to _printf_fp_infnan.o(.text) for _printf_fp_infnan
    _printf_fp_hex.o(.text) refers (Weak) to _printf_pad.o(.text) for _printf_pre_padding
    _printf_fp_hex.o(.text) refers (Weak) to _printf_pad.o(.text) for _printf_pre_padding
    _printf_fp_hex.o(.text) refers (Weak) to _printf_pad.o(.text) for _printf_post_padding
    _printf_fp_hex.o(.text) refers to _printf_fp_hex.o(.constdata) for .constdata
    _printf_fp_hex.o(.constdata) refers (Special) to usenofp.o(x$fpl$usenofp) for __I$use$fp
    _printf_char_common.o(.text) refers to __printf_flags_ss_wp.o(.text) for __printf
    _printf_char.o(.text) refers (Weak) to _printf_str.o(.text) for _printf_str
    _printf_wchar.o(.text) refers (Weak) to _printf_wctomb.o(.text) for _printf_wctomb
    fputc.o(i.fputc) refers to flsbuf.o(.text) for __flsbuf_byte
    initio.o(.text) refers (Special) to libinit2.o(.ARM.Collect$$libinit$$00000026) for __rt_lib_init_stdio_2
    initio.o(.text) refers (Special) to libshutdown2.o(.ARM.Collect$$libshutdown$$00000003) for __rt_lib_shutdown_stdio_2
    initio.o(.text) refers to rt_memclr_w.o(.text) for __aeabi_memclr4
    initio.o(.text) refers to fopen.o(.text) for freopen
    initio.o(.text) refers to defsig_rtred_outer.o(.text) for __rt_SIGRTRED
    initio.o(.text) refers to setvbuf.o(.text) for setvbuf
    initio.o(.text) refers to fclose.o(.text) for _fclose_internal
    initio.o(.text) refers to h1_free.o(.text) for free
    initio.o(.text) refers to stdio_streams.o(.bss) for __stdin
    initio.o(.text) refers to stdio_streams.o(.bss) for __stdout
    initio.o(.text) refers to stdio_streams.o(.bss) for __stderr
    initio.o(.text) refers to stdio_streams.o(.data) for __aeabi_stdin
    initio.o(.text) refers to stdio_streams.o(.data) for __aeabi_stdout
    initio.o(.text) refers to stdio_streams.o(.data) for __aeabi_stderr
    initio.o(.text) refers to retarget_io.o(.rodata.__stdin_name) for __stdin_name
    initio.o(.text) refers to retarget_io.o(.rodata.__stdout_name) for __stdout_name
    initio.o(.text) refers to retarget_io.o(.rodata.__stderr_name) for __stderr_name
    initio_locked.o(.text) refers (Special) to libinit2.o(.ARM.Collect$$libinit$$00000026) for __rt_lib_init_stdio_2
    initio_locked.o(.text) refers (Special) to libshutdown2.o(.ARM.Collect$$libshutdown$$00000003) for __rt_lib_shutdown_stdio_2
    initio_locked.o(.text) refers to rt_memclr_w.o(.text) for __aeabi_memclr4
    initio_locked.o(.text) refers to fopen.o(.text) for freopen
    initio_locked.o(.text) refers to defsig_rtred_outer.o(.text) for __rt_SIGRTRED
    initio_locked.o(.text) refers to setvbuf.o(.text) for setvbuf
    initio_locked.o(.text) refers to fclose.o(.text) for _fclose_internal
    initio_locked.o(.text) refers to h1_free.o(.text) for free
    initio_locked.o(.text) refers to stdio_streams.o(.bss) for __stdin
    initio_locked.o(.text) refers to stdio_streams.o(.bss) for __stdout
    initio_locked.o(.text) refers to stdio_streams.o(.bss) for __stderr
    initio_locked.o(.text) refers to stdio_streams.o(.data) for __aeabi_stdin
    initio_locked.o(.text) refers to stdio_streams.o(.data) for __aeabi_stdout
    initio_locked.o(.text) refers to stdio_streams.o(.data) for __aeabi_stderr
    initio_locked.o(.text) refers to streamlock.o(.data) for _stream_list_lock
    initio_locked.o(.text) refers to retarget_io.o(.rodata.__stdin_name) for __stdin_name
    initio_locked.o(.text) refers to retarget_io.o(.rodata.__stdout_name) for __stdout_name
    initio_locked.o(.text) refers to retarget_io.o(.rodata.__stderr_name) for __stderr_name
    _c16rtomb.o(.text) refers to rt_ctype_table.o(.text) for __rt_ctype_table
    argv_veneer.o(.emb_text) refers to no_argv.o(.text) for __ARM_get_argv
    sys_stackheap_outer.o(.text) refers to libspace.o(.text) for __user_perproc_libspace
    sys_stackheap_outer.o(.text) refers to startup_stm32f446xx.o(.text) for __user_initial_stackheap
    rt_ctype_table.o(.text) refers to rt_locale_intlibspace.o(.text) for __rt_locale
    rt_ctype_table.o(.text) refers to lc_ctype_c.o(locale$$code) for _get_lc_ctype
    rt_locale.o(.text) refers to rt_locale.o(.bss) for __rt_locale_data
    rt_locale_intlibspace.o(.text) refers to libspace.o(.bss) for __libspace_start
    free.o(.text) refers (Special) to hguard.o(.text) for __heap$guard
    free.o(.text) refers to rt_heap_descriptor_intlibspace.o(.text) for __rt_heap_descriptor
    free.o(.text) refers to heapstubs.o(.text) for __Heap_Free
    h1_free.o(.text) refers to rt_heap_descriptor_intlibspace.o(.text) for __rt_heap_descriptor
    h1_free_threads.o(.text) refers to rt_heap_descriptor_intlibspace.o(.text) for __rt_heap_descriptor
    heap2.o(i._FDIterate) refers to heap2.o(.conststring) for .conststring
    heap2.o(i.__Heap_ProvideMemory$realtime) refers to fdtree.o(i._FDTree_Delete) for _FDTree_Delete
    heap2.o(i.__Heap_ProvideMemory$realtime) refers to fdtree.o(i._FDTree_Insert) for _FDTree_Insert
    heap2.o(i.__Heap_Stats$realtime) refers to heap2.o(i._Heap2_StatsIterate) for _Heap2_StatsIterate
    heap2.o(i.__Heap_Valid$realtime) refers to heap2.o(i._FDIterate) for _FDIterate
    heap2.o(i.__Heap_Valid$realtime) refers to heap2.o(.conststring) for .conststring
    heap2.o(i.free$realtime) refers to rt_heap_descriptor_intlibspace.o(.text) for __rt_heap_descriptor
    heap2.o(i.free$realtime) refers to fdtree.o(i._FDTree_Delete) for _FDTree_Delete
    heap2.o(i.free$realtime) refers to fdtree.o(i._FDTree_Insert) for _FDTree_Insert
    heap2.o(i.malloc$realtime) refers to rt_heap_descriptor_intlibspace.o(.text) for __rt_heap_descriptor
    heap2.o(i.malloc$realtime) refers to fdtree.o(i._FDTree_FindFirst) for _FDTree_FindFirst
    heap2.o(i.malloc$realtime) refers to init_alloc.o(.text) for __Heap_Full
    heap2.o(i.malloc$realtime) refers to fdtree.o(i._FDTree_RemoveNode) for _FDTree_RemoveNode
    heap2.o(i.malloc$realtime) refers to fdtree.o(i._FDTree_Insert) for _FDTree_Insert
    heap2.o(i.posix_memalign$realtime) refers to rt_heap_descriptor_intlibspace.o(.text) for __rt_heap_descriptor
    heap2.o(i.posix_memalign$realtime) refers to fdtree.o(i._FDTree_FindFirst) for _FDTree_FindFirst
    heap2.o(i.posix_memalign$realtime) refers to init_alloc.o(.text) for __Heap_Full
    heap2.o(i.posix_memalign$realtime) refers to fdtree.o(i._FDTree_RemoveNode) for _FDTree_RemoveNode
    heap2.o(i.posix_memalign$realtime) refers to fdtree.o(i._FDTree_Insert) for _FDTree_Insert
    heap2.o(i.realloc$realtime) refers to rt_heap_descriptor_intlibspace.o(.text) for __rt_heap_descriptor
    heap2.o(i.realloc$realtime) refers to fdtree.o(i._FDTree_Insert) for _FDTree_Insert
    heap2.o(i.realloc$realtime) refers to h1_free.o(.text) for free
    heap2.o(i.realloc$realtime) refers to h1_alloc.o(.text) for malloc
    heap2.o(i.realloc$realtime) refers to fdtree.o(i._FDTree_Delete) for _FDTree_Delete
    heap2.o(i.realloc$realtime) refers to rt_memcpy_w.o(.text) for __aeabi_memcpy4
    heap2_threads.o(i._FDIterate) refers to heap2_threads.o(.conststring) for .conststring
    heap2_threads.o(i.__Heap_Initialize$realtime$concurrent) refers to mutex_dummy.o(.text) for _mutex_initialize
    heap2_threads.o(i.__Heap_ProvideMemory$realtime$concurrent) refers to fdtree.o(i._FDTree_Delete) for _FDTree_Delete
    heap2_threads.o(i.__Heap_ProvideMemory$realtime$concurrent) refers to fdtree.o(i._FDTree_Insert) for _FDTree_Insert
    heap2_threads.o(i.__Heap_Stats$realtime$concurrent) refers to heap2_threads.o(i._Heap2_StatsIterate) for _Heap2_StatsIterate
    heap2_threads.o(i.__Heap_Valid$realtime$concurrent) refers to heap2_threads.o(i._FDIterate) for _FDIterate
    heap2_threads.o(i.__Heap_Valid$realtime$concurrent) refers to heap2_threads.o(.conststring) for .conststring
    heap2_threads.o(i.free$realtime$concurrent) refers to rt_heap_descriptor_intlibspace.o(.text) for __rt_heap_descriptor
    heap2_threads.o(i.free$realtime$concurrent) refers to fdtree.o(i._FDTree_Delete) for _FDTree_Delete
    heap2_threads.o(i.free$realtime$concurrent) refers to fdtree.o(i._FDTree_Insert) for _FDTree_Insert
    heap2_threads.o(i.malloc$realtime$concurrent) refers to rt_heap_descriptor_intlibspace.o(.text) for __rt_heap_descriptor
    heap2_threads.o(i.malloc$realtime$concurrent) refers to fdtree.o(i._FDTree_FindFirst) for _FDTree_FindFirst
    heap2_threads.o(i.malloc$realtime$concurrent) refers to init_alloc.o(.text) for __Heap_Full
    heap2_threads.o(i.malloc$realtime$concurrent) refers to fdtree.o(i._FDTree_RemoveNode) for _FDTree_RemoveNode
    heap2_threads.o(i.malloc$realtime$concurrent) refers to fdtree.o(i._FDTree_Insert) for _FDTree_Insert
    heap2_threads.o(i.posix_memalign$realtime$concurrent) refers to rt_heap_descriptor_intlibspace.o(.text) for __rt_heap_descriptor
    heap2_threads.o(i.posix_memalign$realtime$concurrent) refers to fdtree.o(i._FDTree_FindFirst) for _FDTree_FindFirst
    heap2_threads.o(i.posix_memalign$realtime$concurrent) refers to init_alloc.o(.text) for __Heap_Full
    heap2_threads.o(i.posix_memalign$realtime$concurrent) refers to fdtree.o(i._FDTree_RemoveNode) for _FDTree_RemoveNode
    heap2_threads.o(i.posix_memalign$realtime$concurrent) refers to fdtree.o(i._FDTree_Insert) for _FDTree_Insert
    heap2_threads.o(i.realloc$realtime$concurrent) refers to rt_heap_descriptor_intlibspace.o(.text) for __rt_heap_descriptor
    heap2_threads.o(i.realloc$realtime$concurrent) refers to fdtree.o(i._FDTree_Insert) for _FDTree_Insert
    heap2_threads.o(i.realloc$realtime$concurrent) refers to h1_free.o(.text) for free
    heap2_threads.o(i.realloc$realtime$concurrent) refers to h1_alloc.o(.text) for malloc
    heap2_threads.o(i.realloc$realtime$concurrent) refers to fdtree.o(i._FDTree_Delete) for _FDTree_Delete
    heap2_threads.o(i.realloc$realtime$concurrent) refers to rt_memcpy_w.o(.text) for __aeabi_memcpy4
    _printf_fp_infnan.o(.text) refers (Weak) to _printf_pad.o(.text) for _printf_pre_padding
    _printf_fp_infnan.o(.text) refers (Weak) to _printf_pad.o(.text) for _printf_post_padding
    bigflt0.o(.text) refers (Special) to usenofp.o(x$fpl$usenofp) for __I$use$fp
    bigflt0.o(.text) refers to btod.o(CL$$btod_emul) for _btod_emul
    bigflt0.o(.text) refers to btod.o(CL$$btod_ediv) for _btod_ediv
    bigflt0.o(.text) refers to bigflt0.o(.constdata) for .constdata
    bigflt0.o(.constdata) refers (Special) to usenofp.o(x$fpl$usenofp) for __I$use$fp
    btod.o(CL$$btod_d2e) refers (Special) to usenofp.o(x$fpl$usenofp) for __I$use$fp
    btod.o(CL$$btod_d2e) refers to btod.o(CL$$btod_d2e_norm_op1) for _d2e_norm_op1
    btod.o(CL$$btod_d2e_norm_op1) refers (Special) to usenofp.o(x$fpl$usenofp) for __I$use$fp
    btod.o(CL$$btod_d2e_norm_op1) refers to btod.o(CL$$btod_d2e_denorm_low) for _d2e_denorm_low
    btod.o(CL$$btod_d2e_denorm_low) refers (Special) to usenofp.o(x$fpl$usenofp) for __I$use$fp
    btod.o(CL$$btod_emul) refers (Special) to usenofp.o(x$fpl$usenofp) for __I$use$fp
    btod.o(CL$$btod_emul) refers to btod.o(CL$$btod_mult_common) for __btod_mult_common
    btod.o(CL$$btod_emul) refers to btod.o(CL$$btod_e2e) for _e2e
    btod.o(CL$$btod_ediv) refers (Special) to usenofp.o(x$fpl$usenofp) for __I$use$fp
    btod.o(CL$$btod_ediv) refers to btod.o(CL$$btod_div_common) for __btod_div_common
    btod.o(CL$$btod_ediv) refers to btod.o(CL$$btod_e2e) for _e2e
    btod.o(CL$$btod_emuld) refers (Special) to usenofp.o(x$fpl$usenofp) for __I$use$fp
    btod.o(CL$$btod_emuld) refers to btod.o(CL$$btod_mult_common) for __btod_mult_common
    btod.o(CL$$btod_emuld) refers to btod.o(CL$$btod_e2d) for _e2d
    btod.o(CL$$btod_edivd) refers (Special) to usenofp.o(x$fpl$usenofp) for __I$use$fp
    btod.o(CL$$btod_edivd) refers to btod.o(CL$$btod_div_common) for __btod_div_common
    btod.o(CL$$btod_edivd) refers to btod.o(CL$$btod_e2d) for _e2d
    btod.o(CL$$btod_e2e) refers (Special) to usenofp.o(x$fpl$usenofp) for __I$use$fp
    btod.o(CL$$btod_e2d) refers (Special) to usenofp.o(x$fpl$usenofp) for __I$use$fp
    btod.o(CL$$btod_e2d) refers to btod.o(CL$$btod_e2e) for _e2e
    btod.o(CL$$btod_mult_common) refers (Special) to usenofp.o(x$fpl$usenofp) for __I$use$fp
    btod.o(CL$$btod_div_common) refers (Special) to usenofp.o(x$fpl$usenofp) for __I$use$fp
    btod_accurate.o(.text) refers to btod_accurate_common.o(.text) for _btod_common
    flsbuf.o(.text) refers to stdio.o(.text) for _deferredlazyseek
    flsbuf.o(.text) refers to retarget_io.o(.text._sys_flen) for _sys_flen
    flsbuf.o(.text) refers to retarget_io.o(.text._sys_istty) for _sys_istty
    flsbuf.o(.text) refers to h1_alloc.o(.text) for malloc
    streamlock.o(.data) refers (Special) to initio.o(.text) for _initio
    fopen.o(.text) refers to fclose.o(.text) for _fclose_internal
    fopen.o(.text) refers to retarget_io.o(.text._sys_open) for _sys_open
    fopen.o(.text) refers to fseek.o(.text) for _fseek
    fopen.o(.text) refers to h1_alloc.o(.text) for malloc
    fopen.o(.text) refers to rt_memclr_w.o(.text) for __aeabi_memclr4
    fopen.o(.text) refers to stdio_streams.o(.bss) for __stdin
    fclose.o(.text) refers to stdio.o(.text) for _fflush
    fclose.o(.text) refers to retarget_io.o(.text._sys_close) for _sys_close
    fclose.o(.text) refers to h1_free.o(.text) for free
    fclose.o(.text) refers to rt_memclr_w.o(.text) for __aeabi_memclr4
    fopen_locked.o(.text) refers to fclose.o(.text) for _fclose_internal
    fopen_locked.o(.text) refers to retarget_io.o(.text._sys_open) for _sys_open
    fopen_locked.o(.text) refers to fseek.o(.text) for _fseek
    fopen_locked.o(.text) refers to h1_alloc.o(.text) for malloc
    fopen_locked.o(.text) refers to rt_memclr_w.o(.text) for __aeabi_memclr4
    fopen_locked.o(.text) refers to streamlock.o(.data) for _stream_list_lock
    fopen_locked.o(.text) refers to stdio_streams.o(.bss) for __stdin
    lc_numeric_c.o(locale$$data) refers (Special) to libinit2.o(.ARM.Collect$$libinit$$00000018) for __rt_lib_init_lc_numeric_2
    lc_numeric_c.o(locale$$code) refers (Special) to libinit2.o(.ARM.Collect$$libinit$$00000018) for __rt_lib_init_lc_numeric_2
    lc_numeric_c.o(locale$$code) refers to strcmpv7em.o(.text) for strcmp
    lc_numeric_c.o(locale$$code) refers to lc_numeric_c.o(locale$$data) for __lcnum_c_name
    exit.o(.text) refers to rtexit.o(.ARM.Collect$$rtexit$$00000000) for __rt_exit
    defsig_rtred_outer.o(.text) refers to defsig_rtred_inner.o(.text) for __rt_SIGRTRED_inner
    defsig_rtred_outer.o(.text) refers to defsig_exit.o(.text) for __sig_exit
    defsig_rtred_formal.o(.text) refers to rt_raise.o(.text) for __rt_raise
    _get_argv_nomalloc.o(.text) refers (Special) to hrguard.o(.text) for __heap_region$guard
    _get_argv_nomalloc.o(.text) refers to defsig_rtmem_outer.o(.text) for __rt_SIGRTMEM
    _get_argv_nomalloc.o(.text) refers to sys_command.o(.text) for _sys_command_string
    libinit.o(.ARM.Collect$$libinit$$00000000) refers (Special) to libinit2.o(.ARM.Collect$$libinit$$00000030) for __rt_lib_init_alloca_1
    libinit.o(.ARM.Collect$$libinit$$00000000) refers (Special) to libinit2.o(.ARM.Collect$$libinit$$0000002E) for __rt_lib_init_argv_1
    libinit.o(.ARM.Collect$$libinit$$00000000) refers (Special) to libinit2.o(.ARM.Collect$$libinit$$0000001D) for __rt_lib_init_atexit_1
    libinit.o(.ARM.Collect$$libinit$$00000000) refers (Special) to libinit2.o(.ARM.Collect$$libinit$$00000023) for __rt_lib_init_clock_1
    libinit.o(.ARM.Collect$$libinit$$00000000) refers (Special) to libinit2.o(.ARM.Collect$$libinit$$00000034) for __rt_lib_init_cpp_1
    libinit.o(.ARM.Collect$$libinit$$00000000) refers (Special) to libinit2.o(.ARM.Collect$$libinit$$00000032) for __rt_lib_init_exceptions_1
    libinit.o(.ARM.Collect$$libinit$$00000000) refers (Special) to libinit2.o(.ARM.Collect$$libinit$$00000001) for __rt_lib_init_fp_1
    libinit.o(.ARM.Collect$$libinit$$00000000) refers (Special) to libinit2.o(.ARM.Collect$$libinit$$00000021) for __rt_lib_init_fp_trap_1
    libinit.o(.ARM.Collect$$libinit$$00000000) refers (Special) to libinit2.o(.ARM.Collect$$libinit$$00000025) for __rt_lib_init_getenv_1
    libinit.o(.ARM.Collect$$libinit$$00000000) refers (Special) to libinit2.o(.ARM.Collect$$libinit$$0000000C) for __rt_lib_init_heap_1
    libinit.o(.ARM.Collect$$libinit$$00000000) refers (Special) to libinit2.o(.ARM.Collect$$libinit$$00000013) for __rt_lib_init_lc_collate_1
    libinit.o(.ARM.Collect$$libinit$$00000000) refers (Special) to libinit2.o(.ARM.Collect$$libinit$$00000015) for __rt_lib_init_lc_ctype_1
    libinit.o(.ARM.Collect$$libinit$$00000000) refers (Special) to libinit2.o(.ARM.Collect$$libinit$$00000017) for __rt_lib_init_lc_monetary_1
    libinit.o(.ARM.Collect$$libinit$$00000000) refers (Special) to libinit2.o(.ARM.Collect$$libinit$$00000019) for __rt_lib_init_lc_numeric_1
    libinit.o(.ARM.Collect$$libinit$$00000000) refers (Special) to libinit2.o(.ARM.Collect$$libinit$$0000001B) for __rt_lib_init_lc_time_1
    libinit.o(.ARM.Collect$$libinit$$00000000) refers (Special) to libinit2.o(.ARM.Collect$$libinit$$00000006) for __rt_lib_init_preinit_1
    libinit.o(.ARM.Collect$$libinit$$00000000) refers (Special) to libinit2.o(.ARM.Collect$$libinit$$00000010) for __rt_lib_init_rand_1
    libinit.o(.ARM.Collect$$libinit$$00000000) refers (Special) to libinit2.o(.ARM.Collect$$libinit$$00000004) for __rt_lib_init_relocate_pie_1
    libinit.o(.ARM.Collect$$libinit$$00000000) refers (Special) to libinit2.o(.ARM.Collect$$libinit$$00000035) for __rt_lib_init_return
    libinit.o(.ARM.Collect$$libinit$$00000000) refers (Special) to libinit2.o(.ARM.Collect$$libinit$$0000001F) for __rt_lib_init_signal_1
    libinit.o(.ARM.Collect$$libinit$$00000000) refers (Special) to libinit2.o(.ARM.Collect$$libinit$$00000027) for __rt_lib_init_stdio_1
    libinit.o(.ARM.Collect$$libinit$$00000000) refers (Special) to libinit2.o(.ARM.Collect$$libinit$$0000000E) for __rt_lib_init_user_alloc_1
    libshutdown2.o(.ARM.Collect$$libshutdown$$00000003) refers (Weak) to initio.o(.text) for _terminateio
    libshutdown2.o(.ARM.Collect$$libshutdown$$0000000D) refers (Weak) to term_alloc.o(.text) for _terminate_alloc
    flsbuf_fwide.o(.text) refers to flsbuf.o(.text) for __flsbuf
    istatus.o(x$fpl$ieeestatus) refers (Special) to usenofp.o(x$fpl$usenofp) for __I$use$fp
    fpclassify.o(i.__ARM_fpclassify) refers (Special) to usenofp.o(x$fpl$usenofp) for __I$use$fp
    sys_command.o(.text) refers (Special) to use_no_semi.o(.text) for __I$use$semihosting
    sys_command.o(.text) refers (Special) to indicate_semi.o(.text) for __semihosting_library_function
    sys_command_hlt.o(.text) refers (Special) to use_no_semi.o(.text) for __I$use$semihosting
    sys_command_hlt.o(.text) refers (Special) to indicate_semi.o(.text) for __semihosting_library_function
    libspace.o(.text) refers to libspace.o(.bss) for __libspace_start
    rtexit.o(.ARM.Collect$$rtexit$$00000000) refers (Special) to rtexit2.o(.ARM.Collect$$rtexit$$00000004) for __rt_exit_exit
    rtexit.o(.ARM.Collect$$rtexit$$00000000) refers (Special) to rtexit2.o(.ARM.Collect$$rtexit$$00000003) for __rt_exit_ls
    rtexit.o(.ARM.Collect$$rtexit$$00000000) refers (Special) to rtexit2.o(.ARM.Collect$$rtexit$$00000002) for __rt_exit_prels_1
    rtexit.o(.ARM.exidx) refers (Special) to rtexit2.o(.ARM.Collect$$rtexit$$00000004) for __rt_exit_exit
    rtexit.o(.ARM.exidx) refers (Special) to rtexit2.o(.ARM.Collect$$rtexit$$00000003) for __rt_exit_ls
    rtexit.o(.ARM.exidx) refers (Special) to rtexit2.o(.ARM.Collect$$rtexit$$00000002) for __rt_exit_prels_1
    rtexit.o(.ARM.exidx) refers to rtexit.o(.ARM.Collect$$rtexit$$00000000) for .ARM.Collect$$rtexit$$00000000
    rt_raise.o(.text) refers to __raise.o(.text) for __raise
    rt_raise.o(.text) refers to sys_exit.o(.text) for _sys_exit
    rt_heap_descriptor.o(.text) refers to rt_heap_descriptor.o(.bss) for __rt_heap_descriptor_data
    rt_heap_descriptor_intlibspace.o(.text) refers to libspace.o(.bss) for __libspace_start
    init_alloc.o(.text) refers (Special) to hguard.o(.text) for __heap$guard
    init_alloc.o(.text) refers (Special) to libinit2.o(.ARM.Collect$$libinit$$00000007) for __rt_lib_init_heap_2
    init_alloc.o(.text) refers (Special) to maybetermalloc1.o(.text) for _maybe_terminate_alloc
    init_alloc.o(.text) refers to h1_extend.o(.text) for __Heap_ProvideMemory
    init_alloc.o(.text) refers to defsig_rtmem_outer.o(.text) for __rt_SIGRTMEM
    init_alloc.o(.text) refers to rt_heap_descriptor_intlibspace.o(.text) for __rt_heap_descriptor
    init_alloc.o(.text) refers to h1_init.o(.text) for __Heap_Initialize
    malloc.o(.text) refers (Special) to hguard.o(.text) for __heap$guard
    malloc.o(.text) refers (Special) to init_alloc.o(.text) for _init_alloc
    malloc.o(.text) refers to rt_heap_descriptor_intlibspace.o(.text) for __rt_heap_descriptor
    malloc.o(.text) refers to heapstubs.o(.text) for __Heap_Alloc
    h1_alloc.o(.text) refers (Special) to h1_init.o(.text) for __Heap_Initialize
    h1_alloc.o(.text) refers to rt_heap_descriptor_intlibspace.o(.text) for __rt_heap_descriptor
    h1_alloc.o(.text) refers to init_alloc.o(.text) for __Heap_Full
    h1_alloc_threads.o(.text) refers (Special) to h1_init.o(.text) for __Heap_Initialize
    h1_alloc_threads.o(.text) refers to init_alloc.o(.text) for __Heap_Full
    h1_alloc_threads.o(.text) refers to rt_heap_descriptor_intlibspace.o(.text) for __rt_heap_descriptor
    _printf_char_file_locked.o(.text) refers to _printf_char_common.o(.text) for _printf_char_common
    _printf_char_file_locked.o(.text) refers to fputc.o(i._fputc$unlocked) for _fputc$unlocked
    btod_accurate_common.o(.text) refers to llushr.o(.text) for __aeabi_llsr
    fseek.o(.text) refers to retarget_io.o(.text._sys_istty) for _sys_istty
    fseek.o(.text) refers to ftell.o(.text) for _ftell_internal
    fseek.o(.text) refers to retarget_io.o(.text._sys_flen) for _sys_flen
    fseek.o(.text) refers to stdio.o(.text) for _seterr
    stdio.o(.text) refers to retarget_io.o(.text._sys_seek) for _sys_seek
    stdio.o(.text) refers to retarget_io.o(.text._sys_write) for _sys_write
    fwritefast.o(.text) refers to stdio.o(.text) for _writebuf
    fwritefast.o(.text) refers to flsbuf.o(.text) for __flsbuf_byte
    fwritefast.o(.text) refers to rt_memcpy_v6.o(.text) for __aeabi_memcpy
    fwritefast_locked.o(.text) refers to stdio.o(.text) for _writebuf
    fwritefast_locked.o(.text) refers to flsbuf.o(.text) for __flsbuf_byte
    fwritefast_locked.o(.text) refers to rt_memcpy_v6.o(.text) for __aeabi_memcpy
    lc_ctype_c.o(locale$$data) refers (Special) to libinit2.o(.ARM.Collect$$libinit$$00000014) for __rt_lib_init_lc_ctype_2
    lc_ctype_c.o(locale$$code) refers (Special) to libinit2.o(.ARM.Collect$$libinit$$00000014) for __rt_lib_init_lc_ctype_2
    lc_ctype_c.o(locale$$code) refers to strcmpv7em.o(.text) for strcmp
    lc_ctype_c.o(locale$$code) refers to lc_ctype_c.o(locale$$data) for __lcctype_c_name
    defsig_exit.o(.text) refers to sys_exit.o(.text) for _sys_exit
    defsig_rtred_inner.o(.text) refers to defsig_general.o(.text) for __default_signal_display
    defsig_rtmem_outer.o(.text) refers to defsig_rtmem_inner.o(.text) for __rt_SIGRTMEM_inner
    defsig_rtmem_outer.o(.text) refers to defsig_exit.o(.text) for __sig_exit
    defsig_rtmem_formal.o(.text) refers to rt_raise.o(.text) for __rt_raise
    assert_stdio.o(.text) refers to fputs.o(.text) for fputs
    assert_stdio.o(.text) refers to fflush.o(.text) for fflush
    assert_stdio.o(.text) refers to stdio_streams.o(.bss) for __stderr
    sys_exit.o(.text) refers (Special) to use_no_semi.o(.text) for __I$use$semihosting
    sys_exit.o(.text) refers (Special) to indicate_semi.o(.text) for __semihosting_library_function
    sys_exit_hlt.o(.text) refers (Special) to use_no_semi.o(.text) for __I$use$semihosting
    sys_exit_hlt.o(.text) refers (Special) to indicate_semi.o(.text) for __semihosting_library_function
    rtexit2.o(.ARM.Collect$$rtexit$$00000003) refers to libshutdown.o(.ARM.Collect$$libshutdown$$00000000) for __rt_lib_shutdown
    rtexit2.o(.ARM.Collect$$rtexit$$00000004) refers to sys_exit.o(.text) for _sys_exit
    rtexit2.o(.ARM.exidx) refers to rtexit2.o(.ARM.Collect$$rtexit$$00000001) for .ARM.Collect$$rtexit$$00000001
    rtexit2.o(.ARM.exidx) refers to rtexit2.o(.ARM.Collect$$rtexit$$00000003) for .ARM.Collect$$rtexit$$00000003
    rtexit2.o(.ARM.exidx) refers to rtexit2.o(.ARM.Collect$$rtexit$$00000004) for .ARM.Collect$$rtexit$$00000004
    maybetermalloc2.o(.text) refers (Special) to term_alloc.o(.text) for _terminate_alloc
    h1_extend.o(.text) refers to h1_free.o(.text) for free
    h1_init_threads.o(.text) refers to mutex_dummy.o(.text) for _mutex_initialize
    h1_extend_threads.o(.text) refers to h1_free_threads.o(.text) for free_internal$concurrent
    fflush.o(.text) refers to stdio.o(.text) for _fflush
    fflush.o(.text) refers to fseek.o(.text) for _fseek
    fflush.o(.text) refers to stdio_streams.o(.bss) for __stdin
    fputs.o(.text) refers to fputc.o(i.fputc) for fputc
    ftell.o(.text) refers to rt_errno_addr_intlibspace.o(.text) for __aeabi_errno_addr
    fflush_locked.o(.text) refers to stdio.o(.text) for _fflush
    fflush_locked.o(.text) refers to fseek.o(.text) for _fseek
    fflush_locked.o(.text) refers to fflush.o(.text) for _do_fflush
    fflush_locked.o(.text) refers to streamlock.o(.data) for _stream_list_lock
    fflush_locked.o(.text) refers to stdio_streams.o(.bss) for __stdin
    __raise.o(.text) refers to defsig.o(CL$$defsig) for __default_signal_handler
    defsig_general.o(.text) refers to sys_wrch.o(.text) for _ttywrch
    defsig_rtmem_inner.o(.text) refers to defsig_general.o(.text) for __default_signal_display
    rt_memcpy_v6.o(.text) refers to rt_memcpy_w.o(.text) for __aeabi_memcpy4
    heapauxa.o(.text) refers to heapauxa.o(.data) for .data
    _get_argv.o(.text) refers (Special) to hrguard.o(.text) for __heap_region$guard
    _get_argv.o(.text) refers to h1_alloc.o(.text) for malloc
    _get_argv.o(.text) refers to defsig_rtmem_outer.o(.text) for __rt_SIGRTMEM
    _get_argv.o(.text) refers to sys_command.o(.text) for _sys_command_string
    sys_wrch.o(.text) refers (Special) to use_no_semi.o(.text) for __I$use$semihosting
    sys_wrch.o(.text) refers (Special) to indicate_semi.o(.text) for __semihosting_library_function
    sys_wrch_hlt.o(.text) refers (Special) to use_no_semi.o(.text) for __I$use$semihosting
    sys_wrch_hlt.o(.text) refers (Special) to indicate_semi.o(.text) for __semihosting_library_function
    rt_errno_addr.o(.text) refers to rt_errno_addr.o(.bss) for __aeabi_errno_addr_data
    rt_errno_addr_intlibspace.o(.text) refers to libspace.o(.bss) for __libspace_start
    term_alloc.o(.text) refers (Special) to libshutdown2.o(.ARM.Collect$$libshutdown$$0000000E) for __rt_lib_shutdown_heap_2
    term_alloc.o(.text) refers to rt_heap_descriptor_intlibspace.o(.text) for __rt_heap_descriptor
    term_alloc.o(.text) refers to h1_final.o(.text) for __Heap_Finalize
    defsig.o(CL$$defsig) refers to defsig_rtred_inner.o(.text) for __rt_SIGRTRED_inner
    defsig.o(CL$$defsig) refers to defsig_rtmem_inner.o(.text) for __rt_SIGRTMEM_inner
    libshutdown.o(.ARM.Collect$$libshutdown$$00000000) refers (Special) to libshutdown2.o(.ARM.Collect$$libshutdown$$00000002) for __rt_lib_shutdown_cpp_1
    libshutdown.o(.ARM.Collect$$libshutdown$$00000000) refers (Special) to libshutdown2.o(.ARM.Collect$$libshutdown$$00000007) for __rt_lib_shutdown_fp_trap_1
    libshutdown.o(.ARM.Collect$$libshutdown$$00000000) refers (Special) to libshutdown2.o(.ARM.Collect$$libshutdown$$0000000F) for __rt_lib_shutdown_heap_1
    libshutdown.o(.ARM.Collect$$libshutdown$$00000000) refers (Special) to libshutdown2.o(.ARM.Collect$$libshutdown$$00000010) for __rt_lib_shutdown_return
    libshutdown.o(.ARM.Collect$$libshutdown$$00000000) refers (Special) to libshutdown2.o(.ARM.Collect$$libshutdown$$0000000A) for __rt_lib_shutdown_signal_1
    libshutdown.o(.ARM.Collect$$libshutdown$$00000000) refers (Special) to libshutdown2.o(.ARM.Collect$$libshutdown$$00000004) for __rt_lib_shutdown_stdio_1
    libshutdown.o(.ARM.Collect$$libshutdown$$00000000) refers (Special) to libshutdown2.o(.ARM.Collect$$libshutdown$$0000000C) for __rt_lib_shutdown_user_alloc_1
    defsig_abrt_inner.o(.text) refers to defsig_general.o(.text) for __default_signal_display
    defsig_fpe_inner.o(.text) refers to defsig_general.o(.text) for __default_signal_display
    defsig_stak_inner.o(.text) refers to defsig_general.o(.text) for __default_signal_display
    defsig_pvfn_inner.o(.text) refers to defsig_general.o(.text) for __default_signal_display
    defsig_cppl_inner.o(.text) refers to defsig_general.o(.text) for __default_signal_display
    defsig_segv_inner.o(.text) refers to defsig_general.o(.text) for __default_signal_display
    defsig_other.o(.text) refers to defsig_general.o(.text) for __default_signal_display


==============================================================================

Removing Unused input sections from the image.

    Removing ili9341.o(.text), (0 bytes).
    Removing ili9341.o(.ARM.exidx.text.SysTick_Init), (8 bytes).
    Removing ili9341.o(.ARM.exidx.text.delayMS), (8 bytes).
    Removing ili9341.o(.ARM.exidx.text.delayMicroS), (8 bytes).
    Removing ili9341.o(.ARM.exidx.text.Draw_String_BG), (8 bytes).
    Removing ili9341.o(.ARM.exidx.text.Draw_Char_BG), (8 bytes).
    Removing ili9341.o(.text.Draw_String_NoBG), (266 bytes).
    Removing ili9341.o(.ARM.exidx.text.Draw_String_NoBG), (8 bytes).
    Removing ili9341.o(.text.Draw_Char_NoBG), (348 bytes).
    Removing ili9341.o(.ARM.exidx.text.Draw_Char_NoBG), (8 bytes).
    Removing ili9341.o(.ARM.exidx.text.Draw_Pixel), (8 bytes).
    Removing ili9341.o(.ARM.exidx.text.Draw_Bitmap), (8 bytes).
    Removing ili9341.o(.ARM.exidx.text.Set_Address_Window), (8 bytes).
    Removing ili9341.o(.ARM.exidx.text.ILI_8Bit_Data), (8 bytes).
    Removing ili9341.o(.ARM.exidx.text.Fill_Screen), (8 bytes).
    Removing ili9341.o(.ARM.exidx.text.Fill_Color), (8 bytes).
    Removing ili9341.o(.text.Draw_Line), (1180 bytes).
    Removing ili9341.o(.ARM.exidx.text.Draw_Line), (8 bytes).
    Removing ili9341.o(.ARM.exidx.text.ILI_Push_16Bit), (8 bytes).
    Removing ili9341.o(.text.Draw_VLine), (122 bytes).
    Removing ili9341.o(.ARM.exidx.text.Draw_VLine), (8 bytes).
    Removing ili9341.o(.text.Draw_HLine), (122 bytes).
    Removing ili9341.o(.ARM.exidx.text.Draw_HLine), (8 bytes).
    Removing ili9341.o(.text.Invert_Display), (70 bytes).
    Removing ili9341.o(.ARM.exidx.text.Invert_Display), (8 bytes).
    Removing ili9341.o(.ARM.exidx.text.ILI_8Bit_Command), (8 bytes).
    Removing ili9341.o(.ARM.exidx.text.Rotate_Display), (8 bytes).
    Removing ili9341.o(.ARM.exidx.text.Display_Init), (8 bytes).
    Removing ili9341.o(.ARM.exidx.text.GPIO_PinMode_Setup), (8 bytes).
    Removing ili9341.o(.ARM.exidx.text.Fill_Rect), (8 bytes).
    Removing ili9341.o(.text.doFontTest), (44 bytes).
    Removing ili9341.o(.ARM.exidx.text.doFontTest), (8 bytes).
    Removing ili9341.o(.bss.Invert_Display.inv_flag), (1 bytes).
    Removing ili9341.o(.rodata.str1.1), (94 bytes).
    Removing rccconfig.o(.text), (0 bytes).
    Removing rccconfig.o(.text.SysClockConfig), (206 bytes).
    Removing rccconfig.o(.ARM.exidx.text.SysClockConfig), (8 bytes).
    Removing spi.o(.text), (0 bytes).
    Removing spi.o(.ARM.exidx.text.SPI_Init), (8 bytes).
    Removing spi.o(.ARM.exidx.text.SPI_GPIO), (8 bytes).
    Removing spi.o(.ARM.exidx.text.SPI_Enable), (8 bytes).
    Removing spi.o(.ARM.exidx.text.CS_Low), (8 bytes).
    Removing spi.o(.text.SPI_Disable), (18 bytes).
    Removing spi.o(.ARM.exidx.text.SPI_Disable), (8 bytes).
    Removing spi.o(.ARM.exidx.text.SPI_Transmit), (8 bytes).
    Removing spi.o(.text.CS_High), (16 bytes).
    Removing spi.o(.ARM.exidx.text.CS_High), (8 bytes).
    Removing testmain.o(.text), (0 bytes).
    Removing testmain.o(.ARM.exidx.text.main), (8 bytes).
    Removing testmain.o(.ARM.exidx.text.WDT_init), (8 bytes).
    Removing testmain.o(.ARM.exidx.text.WDT_reset), (8 bytes).
    Removing testmain.o(.ARM.exidx.text.MENU_SCREENS), (8 bytes).
    Removing testmain.o(.ARM.exidx.text.EXTI15_10_IRQHandler), (8 bytes).
    Removing testmain.o(.ARM.exidx.text.EXTI4_IRQHandler), (8 bytes).
    Removing testmain.o(.ARM.exidx.text.Set_Time), (8 bytes).
    Removing testmain.o(.ARM.exidx.text.Set_Date), (8 bytes).
    Removing testmain.o(.ARM.exidx.text.Read_Date), (8 bytes).
    Removing testmain.o(.ARM.exidx.text.Read_Time), (8 bytes).
    Removing testmain.o(.ARM.exidx.text.Set_TD), (8 bytes).
    Removing testmain.o(.ARM.exidx.text.TIM5_IRQHandler), (8 bytes).
    Removing testmain.o(.text.Store_Current_Health), (22 bytes).
    Removing testmain.o(.ARM.exidx.text.Store_Current_Health), (8 bytes).
    Removing testmain.o(.text.Retrieve_Health), (22 bytes).
    Removing testmain.o(.ARM.exidx.text.Retrieve_Health), (8 bytes).
    Removing testmain.o(.bss.foodCount), (1 bytes).
    Removing testmain.o(.bss.last), (4 bytes).
    Removing testmain.o(.data.servo), (4 bytes).
    Removing testmain.o(.bss.current), (4 bytes).
    Removing testmain.o(.bss.period), (8 bytes).
    Removing testmain.o(.bss.prev_state), (4 bytes).
    Removing testmain.o(.bss.RTC_Day), (1 bytes).
    Removing testmain.o(.ARM.use_no_argv), (4 bytes).
    Removing hall.o(.text), (0 bytes).
    Removing hall.o(.ARM.exidx.text.hallEffect_pinInit), (8 bytes).
    Removing hall.o(.ARM.exidx.text.__NVIC_EnableIRQ), (8 bytes).
    Removing timers.o(.text), (0 bytes).
    Removing timers.o(.text.timer_init), (216 bytes).
    Removing timers.o(.ARM.exidx.text.timer_init), (8 bytes).
    Removing stepper.o(.text), (0 bytes).
    Removing stepper.o(.ARM.exidx.text.stepper_init), (8 bytes).
    Removing stepper.o(.text.get_step), (112 bytes).
    Removing stepper.o(.ARM.exidx.text.get_step), (8 bytes).
    Removing stepper.o(.text.set_step), (200 bytes).
    Removing stepper.o(.ARM.exidx.text.set_step), (8 bytes).
    Removing stepper.o(.text.stepper_half_step), (136 bytes).
    Removing stepper.o(.ARM.exidx.text.stepper_half_step), (8 bytes).
    Removing stepper.o(.text.stepper_full_step), (102 bytes).
    Removing stepper.o(.ARM.exidx.text.stepper_full_step), (8 bytes).
    Removing i2c.o(.text), (0 bytes).
    Removing i2c.o(.ARM.exidx.text.I2C_init), (8 bytes).
    Removing i2c.o(.ARM.exidx.text.I2C1_byteWrite), (8 bytes).
    Removing i2c.o(.ARM.exidx.text.I2C1_byteRead), (8 bytes).
    Removing rotary_encoder.o(.text), (0 bytes).
    Removing rotary_encoder.o(.ARM.exidx.text.Encoder_TIM_init), (8 bytes).
    Removing rotary_encoder.o(.ARM.exidx.text.Encoder_init), (8 bytes).
    Removing rotary_encoder.o(.ARM.exidx.text.__NVIC_EnableIRQ), (8 bytes).
    Removing btn.o(.text), (0 bytes).
    Removing btn.o(.text.BTN_init), (138 bytes).
    Removing btn.o(.ARM.exidx.text.BTN_init), (8 bytes).
    Removing sonar.o(.text), (0 bytes).
    Removing sonar.o(.ARM.exidx.text.sonar_gpio_init), (8 bytes).
    Removing sonar.o(.ARM.exidx.text.dist), (8 bytes).
    Removing servo.o(.text), (0 bytes).
    Removing servo.o(.ARM.exidx.text.TIM1_setup), (8 bytes).
    Removing servo.o(.ARM.exidx.text.TIM_GPIO), (8 bytes).
    Removing servo.o(.ARM.exidx.text.Timer6_Init), (8 bytes).
    Removing servo.o(.ARM.exidx.text.__NVIC_EnableIRQ), (8 bytes).
    Removing servo.o(.ARM.exidx.text.Eye_Move_To), (8 bytes).
    Removing servo.o(.ARM.exidx.text.Eyelid_Move_To), (8 bytes).
    Removing servo.o(.ARM.exidx.text.Tongue_Move_To), (8 bytes).
    Removing servo.o(.ARM.exidx.text.TIM1_CH1_Enable), (8 bytes).
    Removing servo.o(.ARM.exidx.text.TIM1_CH2_Enable), (8 bytes).
    Removing servo.o(.ARM.exidx.text.TIM1_CH3_Enable), (8 bytes).
    Removing servo.o(.ARM.exidx.text.TIM1_CH1_Disable), (8 bytes).
    Removing servo.o(.ARM.exidx.text.TIM1_CH2_Disable), (8 bytes).
    Removing servo.o(.ARM.exidx.text.TIM1_CH3_Disable), (8 bytes).
    Removing servo.o(.ARM.exidx.text.TIM6_DAC_IRQHandler), (8 bytes).
    Removing adc.o(.text), (0 bytes).
    Removing adc.o(.ARM.exidx.text.adc_init), (8 bytes).
    Removing adc.o(.ARM.exidx.text.Read_ADC), (8 bytes).
    Removing adc.o(.data.N), (1 bytes).
    Removing health_bar.o(.text), (0 bytes).
    Removing health_bar.o(.ARM.exidx.text.init_ShiftRegister), (8 bytes).
    Removing health_bar.o(.ARM.exidx.text.HealthCurrent), (8 bytes).
    Removing health_bar.o(.ARM.exidx.text.HealthClear), (8 bytes).
    Removing health_bar.o(.ARM.exidx.text.HealthMinusMinus), (8 bytes).
    Removing health_bar.o(.ARM.exidx.text.HealthPlusPlus), (8 bytes).
    Removing health_bar.o(.text.HealthMax), (146 bytes).
    Removing health_bar.o(.ARM.exidx.text.HealthMax), (8 bytes).
    Removing health_bar.o(.ARM.exidx.text.tim5_init), (8 bytes).
    Removing health_bar.o(.ARM.exidx.text.__NVIC_EnableIRQ), (8 bytes).
    Removing sevenseg.o(.text), (0 bytes).
    Removing sevenseg.o(.ARM.exidx.text.Init_seq), (8 bytes).
    Removing sevenseg.o(.ARM.exidx.text.sevenSeg_write), (8 bytes).
    Removing sevenseg.o(.text.sevenSeg_init), (154 bytes).
    Removing sevenseg.o(.ARM.exidx.text.sevenSeg_init), (8 bytes).
    Removing piezo.o(.text), (0 bytes).
    Removing piezo.o(.ARM.exidx.text.Timer7_Init), (8 bytes).
    Removing piezo.o(.ARM.exidx.text.__NVIC_EnableIRQ), (8 bytes).
    Removing piezo.o(.text.Buzzer_Init), (12 bytes).
    Removing piezo.o(.ARM.exidx.text.Buzzer_Init), (8 bytes).
    Removing piezo.o(.ARM.exidx.text.Timer8_Init), (8 bytes).
    Removing piezo.o(.ARM.exidx.text.Play_Tone_1), (8 bytes).
    Removing piezo.o(.ARM.exidx.text.Play_Tone_2), (8 bytes).
    Removing piezo.o(.ARM.exidx.text.Play_Tone_3), (8 bytes).
    Removing piezo.o(.ARM.exidx.text.Play_Tone_4), (8 bytes).
    Removing piezo.o(.ARM.exidx.text.Buzzer_Stop), (8 bytes).
    Removing piezo.o(.ARM.exidx.text.TIM7_IRQHandler), (8 bytes).
    Removing piezo.o(.ARM.exidx.text.millis), (8 bytes).
    Removing retarget_io.o(.text), (0 bytes).
    Removing retarget_io.o(.ARM.exidx.text.ITM_SendChar), (8 bytes).
    Removing retarget_io.o(.text.ITM_ReceiveChar), (62 bytes).
    Removing retarget_io.o(.ARM.exidx.text.ITM_ReceiveChar), (8 bytes).
    Removing retarget_io.o(.ARM.exidx.text._sys_open), (8 bytes).
    Removing retarget_io.o(.ARM.exidx.text._sys_close), (8 bytes).
    Removing retarget_io.o(.ARM.exidx.text._sys_write), (8 bytes).
    Removing retarget_io.o(.ARM.exidx.text.stdout_putchar), (8 bytes).
    Removing retarget_io.o(.ARM.exidx.text.stderr_putchar), (8 bytes).
    Removing retarget_io.o(.text._sys_read), (128 bytes).
    Removing retarget_io.o(.ARM.exidx.text._sys_read), (8 bytes).
    Removing retarget_io.o(.text.stdin_getchar), (30 bytes).
    Removing retarget_io.o(.ARM.exidx.text.stdin_getchar), (8 bytes).
    Removing retarget_io.o(.ARM.exidx.text._sys_istty), (8 bytes).
    Removing retarget_io.o(.ARM.exidx.text._sys_seek), (8 bytes).
    Removing retarget_io.o(.ARM.exidx.text._sys_flen), (8 bytes).
    Removing retarget_io.o(.data.ITM_RxBuffer), (4 bytes).
    Removing system_stm32f4xx.o(.text), (0 bytes).
    Removing system_stm32f4xx.o(.ARM.exidx.text.SystemInit), (8 bytes).
    Removing system_stm32f4xx.o(.text.SystemCoreClockUpdate), (302 bytes).
    Removing system_stm32f4xx.o(.ARM.exidx.text.SystemCoreClockUpdate), (8 bytes).
    Removing system_stm32f4xx.o(.data.SystemCoreClock), (4 bytes).
    Removing system_stm32f4xx.o(.rodata.AHBPrescTable), (16 bytes).
    Removing system_stm32f4xx.o(.rodata.APBPrescTable), (8 bytes).

173 unused section(s) (total 5252 bytes) removed from the image.

==============================================================================

Image Symbol Table

    Local Symbols

    Symbol Name                              Value     Ov Type        Size  Object(Section)

    ../clib/angel/boardlib.s                 0x00000000   Number         0  boardinit1.o ABSOLUTE
    ../clib/angel/boardlib.s                 0x00000000   Number         0  boardinit2.o ABSOLUTE
    ../clib/angel/boardlib.s                 0x00000000   Number         0  boardinit3.o ABSOLUTE
    ../clib/angel/boardlib.s                 0x00000000   Number         0  boardshut.o ABSOLUTE
    ../clib/angel/handlers.s                 0x00000000   Number         0  __scatter_copy.o ABSOLUTE
    ../clib/angel/handlers.s                 0x00000000   Number         0  __scatter_zi.o ABSOLUTE
    ../clib/angel/kernel.s                   0x00000000   Number         0  __rtentry.o ABSOLUTE
    ../clib/angel/kernel.s                   0x00000000   Number         0  __rtentry2.o ABSOLUTE
    ../clib/angel/kernel.s                   0x00000000   Number         0  __rtentry4.o ABSOLUTE
    ../clib/angel/kernel.s                   0x00000000   Number         0  rtexit.o ABSOLUTE
    ../clib/angel/kernel.s                   0x00000000   Number         0  rtexit2.o ABSOLUTE
    ../clib/angel/rt.s                       0x00000000   Number         0  rt_ctype_table.o ABSOLUTE
    ../clib/angel/rt.s                       0x00000000   Number         0  rt_locale.o ABSOLUTE
    ../clib/angel/rt.s                       0x00000000   Number         0  rt_locale_intlibspace.o ABSOLUTE
    ../clib/angel/rt.s                       0x00000000   Number         0  rt_raise.o ABSOLUTE
    ../clib/angel/rt.s                       0x00000000   Number         0  rt_heap_descriptor.o ABSOLUTE
    ../clib/angel/rt.s                       0x00000000   Number         0  rt_heap_descriptor_intlibspace.o ABSOLUTE
    ../clib/angel/rt.s                       0x00000000   Number         0  rt_errno_addr.o ABSOLUTE
    ../clib/angel/rt.s                       0x00000000   Number         0  rt_errno_addr_intlibspace.o ABSOLUTE
    ../clib/angel/scatter.s                  0x00000000   Number         0  __scatter.o ABSOLUTE
    ../clib/angel/startup.s                  0x00000000   Number         0  __main.o ABSOLUTE
    ../clib/angel/sys.s                      0x00000000   Number         0  mutex_dummy.o ABSOLUTE
    ../clib/angel/sys.s                      0x00000000   Number         0  sys_stackheap_outer.o ABSOLUTE
    ../clib/angel/sys.s                      0x00000000   Number         0  libspace.o ABSOLUTE
    ../clib/angel/sys.s                      0x00000000   Number         0  use_no_semi.o ABSOLUTE
    ../clib/angel/sys.s                      0x00000000   Number         0  indicate_semi.o ABSOLUTE
    ../clib/angel/sysapp.c                   0x00000000   Number         0  sys_command.o ABSOLUTE
    ../clib/angel/sysapp.c                   0x00000000   Number         0  sys_command_hlt.o ABSOLUTE
    ../clib/angel/sysapp.c                   0x00000000   Number         0  sys_exit.o ABSOLUTE
    ../clib/angel/sysapp.c                   0x00000000   Number         0  sys_exit_hlt.o ABSOLUTE
    ../clib/angel/sysapp.c                   0x00000000   Number         0  sys_wrch.o ABSOLUTE
    ../clib/angel/sysapp.c                   0x00000000   Number         0  sys_wrch_hlt.o ABSOLUTE
    ../clib/armsys.c                         0x00000000   Number         0  argv_veneer.o ABSOLUTE
    ../clib/armsys.c                         0x00000000   Number         0  argv_veneer.o ABSOLUTE
    ../clib/armsys.c                         0x00000000   Number         0  _get_argv_nomalloc.o ABSOLUTE
    ../clib/armsys.c                         0x00000000   Number         0  no_argv.o ABSOLUTE
    ../clib/armsys.c                         0x00000000   Number         0  _get_argv.o ABSOLUTE
    ../clib/assert.c                         0x00000000   Number         0  assert_stdio.o ABSOLUTE
    ../clib/bigflt.c                         0x00000000   Number         0  bigflt0.o ABSOLUTE
    ../clib/btod.s                           0x00000000   Number         0  btod.o ABSOLUTE
    ../clib/btod_accurate.c                  0x00000000   Number         0  btod_accurate.o ABSOLUTE
    ../clib/btod_accurate.c                  0x00000000   Number         0  btod_accurate_common.o ABSOLUTE
    ../clib/heap1.c                          0x00000000   Number         0  h1_free.o ABSOLUTE
    ../clib/heap1.c                          0x00000000   Number         0  h1_free_threads.o ABSOLUTE
    ../clib/heap1.c                          0x00000000   Number         0  h1_alloc.o ABSOLUTE
    ../clib/heap1.c                          0x00000000   Number         0  h1_alloc_threads.o ABSOLUTE
    ../clib/heap1.c                          0x00000000   Number         0  h1_init.o ABSOLUTE
    ../clib/heap1.c                          0x00000000   Number         0  h1_extend.o ABSOLUTE
    ../clib/heap1.c                          0x00000000   Number         0  h1_init_threads.o ABSOLUTE
    ../clib/heap1.c                          0x00000000   Number         0  h1_extend_threads.o ABSOLUTE
    ../clib/heap1.c                          0x00000000   Number         0  h1_final.o ABSOLUTE
    ../clib/heap1.c                          0x00000000   Number         0  h1_final_threads.o ABSOLUTE
    ../clib/heap2.c                          0x00000000   Number         0  heap2.o ABSOLUTE
    ../clib/heap2.c                          0x00000000   Number         0  heap2_threads.o ABSOLUTE
    ../clib/heap2.c                          0x00000000   Number         0  fdtree.o ABSOLUTE
    ../clib/heapalloc.c                      0x00000000   Number         0  free.o ABSOLUTE
    ../clib/heapalloc.c                      0x00000000   Number         0  hguard.o ABSOLUTE
    ../clib/heapalloc.c                      0x00000000   Number         0  hrguard.o ABSOLUTE
    ../clib/heapalloc.c                      0x00000000   Number         0  init_alloc.o ABSOLUTE
    ../clib/heapalloc.c                      0x00000000   Number         0  malloc.o ABSOLUTE
    ../clib/heapalloc.c                      0x00000000   Number         0  heapstubs.o ABSOLUTE
    ../clib/heapalloc.c                      0x00000000   Number         0  term_alloc.o ABSOLUTE
    ../clib/heapaux.c                        0x00000000   Number         0  heapauxi.o ABSOLUTE
    ../clib/heapaux.c                        0x00000000   Number         0  heapauxa.o ABSOLUTE
    ../clib/libinit.s                        0x00000000   Number         0  libinit2.o ABSOLUTE
    ../clib/libinit.s                        0x00000000   Number         0  libinit.o ABSOLUTE
    ../clib/libinit.s                        0x00000000   Number         0  libshutdown2.o ABSOLUTE
    ../clib/libinit.s                        0x00000000   Number         0  libshutdown.o ABSOLUTE
    ../clib/locale.c                         0x00000000   Number         0  _c16rtomb.o ABSOLUTE
    ../clib/locale.s                         0x00000000   Number         0  lc_numeric_c.o ABSOLUTE
    ../clib/locale.s                         0x00000000   Number         0  lc_ctype_c.o ABSOLUTE
    ../clib/longlong.s                       0x00000000   Number         0  lludiv10.o ABSOLUTE
    ../clib/longlong.s                       0x00000000   Number         0  llushr.o ABSOLUTE
    ../clib/maybe.s                          0x00000000   Number         0  maybetermalloc1.o ABSOLUTE
    ../clib/maybe.s                          0x00000000   Number         0  maybetermalloc2.o ABSOLUTE
    ../clib/memcpset.s                       0x00000000   Number         0  strcmpv7em.o ABSOLUTE
    ../clib/memcpset.s                       0x00000000   Number         0  rt_memclr_w.o ABSOLUTE
    ../clib/memcpset.s                       0x00000000   Number         0  rt_memcpy_w.o ABSOLUTE
    ../clib/memcpset.s                       0x00000000   Number         0  rt_memcpy_v6.o ABSOLUTE
    ../clib/misc.s                           0x00000000   Number         0  printf_stubs.o ABSOLUTE
    ../clib/printf.c                         0x00000000   Number         0  printf.o ABSOLUTE
    ../clib/printf.c                         0x00000000   Number         0  __printf.o ABSOLUTE
    ../clib/printf.c                         0x00000000   Number         0  _printf_pad.o ABSOLUTE
    ../clib/printf.c                         0x00000000   Number         0  _printf_truncate.o ABSOLUTE
    ../clib/printf.c                         0x00000000   Number         0  _printf_str.o ABSOLUTE
    ../clib/printf.c                         0x00000000   Number         0  _printf_dec.o ABSOLUTE
    ../clib/printf.c                         0x00000000   Number         0  _printf_charcount.o ABSOLUTE
    ../clib/printf.c                         0x00000000   Number         0  _printf_char_file.o ABSOLUTE
    ../clib/printf.c                         0x00000000   Number         0  _printf_wctomb.o ABSOLUTE
    ../clib/printf.c                         0x00000000   Number         0  _printf_longlong_dec.o ABSOLUTE
    ../clib/printf.c                         0x00000000   Number         0  _printf_oct_ll.o ABSOLUTE
    ../clib/printf.c                         0x00000000   Number         0  _printf_oct_int.o ABSOLUTE
    ../clib/printf.c                         0x00000000   Number         0  _printf_oct_int_ll.o ABSOLUTE
    ../clib/printf.c                         0x00000000   Number         0  _printf_hex_ll.o ABSOLUTE
    ../clib/printf.c                         0x00000000   Number         0  _printf_hex_int.o ABSOLUTE
    ../clib/printf.c                         0x00000000   Number         0  _printf_hex_int_ll.o ABSOLUTE
    ../clib/printf.c                         0x00000000   Number         0  _printf_hex_ptr.o ABSOLUTE
    ../clib/printf.c                         0x00000000   Number         0  _printf_hex_int_ptr.o ABSOLUTE
    ../clib/printf.c                         0x00000000   Number         0  _printf_hex_ll_ptr.o ABSOLUTE
    ../clib/printf.c                         0x00000000   Number         0  _printf_hex_int_ll_ptr.o ABSOLUTE
    ../clib/printf.c                         0x00000000   Number         0  __printf_flags.o ABSOLUTE
    ../clib/printf.c                         0x00000000   Number         0  __printf_ss.o ABSOLUTE
    ../clib/printf.c                         0x00000000   Number         0  __printf_flags_ss.o ABSOLUTE
    ../clib/printf.c                         0x00000000   Number         0  __printf_wp.o ABSOLUTE
    ../clib/printf.c                         0x00000000   Number         0  __printf_flags_wp.o ABSOLUTE
    ../clib/printf.c                         0x00000000   Number         0  __printf_ss_wp.o ABSOLUTE
    ../clib/printf.c                         0x00000000   Number         0  __printf_flags_ss_wp.o ABSOLUTE
    ../clib/printf.c                         0x00000000   Number         0  _printf_intcommon.o ABSOLUTE
    ../clib/printf.c                         0x00000000   Number         0  _printf_fp_dec.o ABSOLUTE
    ../clib/printf.c                         0x00000000   Number         0  _printf_fp_dec_accurate.o ABSOLUTE
    ../clib/printf.c                         0x00000000   Number         0  _printf_fp_hex.o ABSOLUTE
    ../clib/printf.c                         0x00000000   Number         0  _printf_char_common.o ABSOLUTE
    ../clib/printf.c                         0x00000000   Number         0  _printf_char.o ABSOLUTE
    ../clib/printf.c                         0x00000000   Number         0  _printf_wchar.o ABSOLUTE
    ../clib/printf.c                         0x00000000   Number         0  _printf_fp_infnan.o ABSOLUTE
    ../clib/printf.c                         0x00000000   Number         0  __printf_nopercent.o ABSOLUTE
    ../clib/printf.c                         0x00000000   Number         0  _printf_char_file_locked.o ABSOLUTE
    ../clib/printf_percent.s                 0x00000000   Number         0  _printf_c.o ABSOLUTE
    ../clib/printf_percent.s                 0x00000000   Number         0  _printf_s.o ABSOLUTE
    ../clib/printf_percent.s                 0x00000000   Number         0  _printf_n.o ABSOLUTE
    ../clib/printf_percent.s                 0x00000000   Number         0  _printf_x.o ABSOLUTE
    ../clib/printf_percent.s                 0x00000000   Number         0  _printf_p.o ABSOLUTE
    ../clib/printf_percent.s                 0x00000000   Number         0  _printf_o.o ABSOLUTE
    ../clib/printf_percent.s                 0x00000000   Number         0  _printf_i.o ABSOLUTE
    ../clib/printf_percent.s                 0x00000000   Number         0  _printf_d.o ABSOLUTE
    ../clib/printf_percent.s                 0x00000000   Number         0  _printf_u.o ABSOLUTE
    ../clib/printf_percent.s                 0x00000000   Number         0  _printf_f.o ABSOLUTE
    ../clib/printf_percent.s                 0x00000000   Number         0  _printf_e.o ABSOLUTE
    ../clib/printf_percent.s                 0x00000000   Number         0  _printf_g.o ABSOLUTE
    ../clib/printf_percent.s                 0x00000000   Number         0  _printf_a.o ABSOLUTE
    ../clib/printf_percent.s                 0x00000000   Number         0  _printf_percent.o ABSOLUTE
    ../clib/printf_percent.s                 0x00000000   Number         0  _printf_lli.o ABSOLUTE
    ../clib/printf_percent.s                 0x00000000   Number         0  _printf_lld.o ABSOLUTE
    ../clib/printf_percent.s                 0x00000000   Number         0  _printf_llu.o ABSOLUTE
    ../clib/printf_percent.s                 0x00000000   Number         0  _printf_ll.o ABSOLUTE
    ../clib/printf_percent.s                 0x00000000   Number         0  _printf_l.o ABSOLUTE
    ../clib/printf_percent.s                 0x00000000   Number         0  _printf_lc.o ABSOLUTE
    ../clib/printf_percent.s                 0x00000000   Number         0  _printf_ls.o ABSOLUTE
    ../clib/printf_percent.s                 0x00000000   Number         0  _printf_llo.o ABSOLUTE
    ../clib/printf_percent.s                 0x00000000   Number         0  _printf_llx.o ABSOLUTE
    ../clib/printf_percent.s                 0x00000000   Number         0  _printf_percent_end.o ABSOLUTE
    ../clib/signal.c                         0x00000000   Number         0  defsig_rtred_outer.o ABSOLUTE
    ../clib/signal.c                         0x00000000   Number         0  defsig_rtred_formal.o ABSOLUTE
    ../clib/signal.c                         0x00000000   Number         0  defsig_exit.o ABSOLUTE
    ../clib/signal.c                         0x00000000   Number         0  defsig_rtred_inner.o ABSOLUTE
    ../clib/signal.c                         0x00000000   Number         0  defsig_rtmem_outer.o ABSOLUTE
    ../clib/signal.c                         0x00000000   Number         0  defsig_rtmem_formal.o ABSOLUTE
    ../clib/signal.c                         0x00000000   Number         0  __raise.o ABSOLUTE
    ../clib/signal.c                         0x00000000   Number         0  defsig_general.o ABSOLUTE
    ../clib/signal.c                         0x00000000   Number         0  defsig_rtmem_inner.o ABSOLUTE
    ../clib/signal.c                         0x00000000   Number         0  defsig_abrt_inner.o ABSOLUTE
    ../clib/signal.c                         0x00000000   Number         0  defsig_fpe_inner.o ABSOLUTE
    ../clib/signal.c                         0x00000000   Number         0  defsig_stak_inner.o ABSOLUTE
    ../clib/signal.c                         0x00000000   Number         0  defsig_pvfn_inner.o ABSOLUTE
    ../clib/signal.c                         0x00000000   Number         0  defsig_cppl_inner.o ABSOLUTE
    ../clib/signal.c                         0x00000000   Number         0  defsig_segv_inner.o ABSOLUTE
    ../clib/signal.c                         0x00000000   Number         0  defsig_other.o ABSOLUTE
    ../clib/signal.s                         0x00000000   Number         0  defsig.o ABSOLUTE
    ../clib/stdio.c                          0x00000000   Number         0  stdio_streams.o ABSOLUTE
    ../clib/stdio.c                          0x00000000   Number         0  ferror.o ABSOLUTE
    ../clib/stdio.c                          0x00000000   Number         0  fputc.o ABSOLUTE
    ../clib/stdio.c                          0x00000000   Number         0  initio.o ABSOLUTE
    ../clib/stdio.c                          0x00000000   Number         0  fputc_locked.o ABSOLUTE
    ../clib/stdio.c                          0x00000000   Number         0  ferror_locked.o ABSOLUTE
    ../clib/stdio.c                          0x00000000   Number         0  initio_locked.o ABSOLUTE
    ../clib/stdio.c                          0x00000000   Number         0  flsbuf.o ABSOLUTE
    ../clib/stdio.c                          0x00000000   Number         0  setvbuf.o ABSOLUTE
    ../clib/stdio.c                          0x00000000   Number         0  streamlock.o ABSOLUTE
    ../clib/stdio.c                          0x00000000   Number         0  fopen.o ABSOLUTE
    ../clib/stdio.c                          0x00000000   Number         0  fclose.o ABSOLUTE
    ../clib/stdio.c                          0x00000000   Number         0  setvbuf_locked.o ABSOLUTE
    ../clib/stdio.c                          0x00000000   Number         0  fopen_locked.o ABSOLUTE
    ../clib/stdio.c                          0x00000000   Number         0  fseek.o ABSOLUTE
    ../clib/stdio.c                          0x00000000   Number         0  stdio.o ABSOLUTE
    ../clib/stdio.c                          0x00000000   Number         0  fwritefast.o ABSOLUTE
    ../clib/stdio.c                          0x00000000   Number         0  fwritefast_locked.o ABSOLUTE
    ../clib/stdio.c                          0x00000000   Number         0  fflush.o ABSOLUTE
    ../clib/stdio.c                          0x00000000   Number         0  fputs.o ABSOLUTE
    ../clib/stdio.c                          0x00000000   Number         0  ftell.o ABSOLUTE
    ../clib/stdio.c                          0x00000000   Number         0  fputs_locked.o ABSOLUTE
    ../clib/stdio.c                          0x00000000   Number         0  fflush_locked.o ABSOLUTE
    ../clib/stdlib.c                         0x00000000   Number         0  abs.o ABSOLUTE
    ../clib/stdlib.c                         0x00000000   Number         0  rand.o ABSOLUTE
    ../clib/stdlib.c                         0x00000000   Number         0  rand.o ABSOLUTE
    ../clib/stdlib.c                         0x00000000   Number         0  exit.o ABSOLUTE
    ../clib/string.c                         0x00000000   Number         0  strlen.o ABSOLUTE
    ../clib/wchar.c                          0x00000000   Number         0  flsbuf_fwide.o ABSOLUTE
    ../fplib/daddsub.s                       0x00000000   Number         0  daddsub_clz.o ABSOLUTE
    ../fplib/dfix.s                          0x00000000   Number         0  dfix.o ABSOLUTE
    ../fplib/dflt.s                          0x00000000   Number         0  dflt_clz.o ABSOLUTE
    ../fplib/dmul.s                          0x00000000   Number         0  dmul.o ABSOLUTE
    ../fplib/dnaninf.s                       0x00000000   Number         0  dnaninf.o ABSOLUTE
    ../fplib/dretinf.s                       0x00000000   Number         0  dretinf.o ABSOLUTE
    ../fplib/fpinit.s                        0x00000000   Number         0  fpinit.o ABSOLUTE
    ../fplib/istatus.s                       0x00000000   Number         0  istatus.o ABSOLUTE
    ../fplib/printf1.s                       0x00000000   Number         0  printf1.o ABSOLUTE
    ../fplib/printf2.s                       0x00000000   Number         0  printf2.o ABSOLUTE
    ../fplib/printf2a.s                      0x00000000   Number         0  printf2a.o ABSOLUTE
    ../fplib/printf2b.s                      0x00000000   Number         0  printf2b.o ABSOLUTE
    ../fplib/usenofp.s                       0x00000000   Number         0  usenofp.o ABSOLUTE
    ../mathlib/fpclassify.c                  0x00000000   Number         0  fpclassify.o ABSOLUTE
    ADC.c                                    0x00000000   Number         0  adc.o ABSOLUTE
    I2C.c                                    0x00000000   Number         0  i2c.o ABSOLUTE
    ILI9341.c                                0x00000000   Number         0  ili9341.o ABSOLUTE
    Piezo.c                                  0x00000000   Number         0  piezo.o ABSOLUTE
    RTE/Device/STM32F446RETx/startup_stm32f446xx.s 0x00000000   Number         0  startup_stm32f446xx.o ABSOLUTE
    RccConfig.c                              0x00000000   Number         0  rccconfig.o ABSOLUTE
    Sonar.c                                  0x00000000   Number         0  sonar.o ABSOLUTE
    TIMERS.c                                 0x00000000   Number         0  timers.o ABSOLUTE
    btn.c                                    0x00000000   Number         0  btn.o ABSOLUTE
    dc.s                                     0x00000000   Number         0  dc.o ABSOLUTE
    hall.c                                   0x00000000   Number         0  hall.o ABSOLUTE
    health_bar.c                             0x00000000   Number         0  health_bar.o ABSOLUTE
    retarget_io.c                            0x00000000   Number         0  retarget_io.o ABSOLUTE
    rotary_encoder.c                         0x00000000   Number         0  rotary_encoder.o ABSOLUTE
    servo.c                                  0x00000000   Number         0  servo.o ABSOLUTE
    sevenSeg.c                               0x00000000   Number         0  sevenseg.o ABSOLUTE
    spi.c                                    0x00000000   Number         0  spi.o ABSOLUTE
    stepper.c                                0x00000000   Number         0  stepper.o ABSOLUTE
    system_stm32f4xx.c                       0x00000000   Number         0  system_stm32f4xx.o ABSOLUTE
    testmain.c                               0x00000000   Number         0  testmain.o ABSOLUTE
    RESET                                    0x08000000   Section      452  startup_stm32f446xx.o(RESET)
    !!!main                                  0x080001c4   Section        8  __main.o(!!!main)
    !!!scatter                               0x080001cc   Section       52  __scatter.o(!!!scatter)
    !!handler_copy                           0x08000200   Section       26  __scatter_copy.o(!!handler_copy)
    !!handler_zi                             0x0800021c   Section       28  __scatter_zi.o(!!handler_zi)
    .ARM.Collect$$_printf_percent$$00000000  0x08000238   Section        0  _printf_percent.o(.ARM.Collect$$_printf_percent$$00000000)
    .ARM.Collect$$_printf_percent$$00000001  0x08000238   Section        6  _printf_n.o(.ARM.Collect$$_printf_percent$$00000001)
    .ARM.Collect$$_printf_percent$$00000002  0x0800023e   Section        6  _printf_p.o(.ARM.Collect$$_printf_percent$$00000002)
    .ARM.Collect$$_printf_percent$$00000003  0x08000244   Section        6  _printf_f.o(.ARM.Collect$$_printf_percent$$00000003)
    .ARM.Collect$$_printf_percent$$00000004  0x0800024a   Section        6  _printf_e.o(.ARM.Collect$$_printf_percent$$00000004)
    .ARM.Collect$$_printf_percent$$00000005  0x08000250   Section        6  _printf_g.o(.ARM.Collect$$_printf_percent$$00000005)
    .ARM.Collect$$_printf_percent$$00000006  0x08000256   Section        6  _printf_a.o(.ARM.Collect$$_printf_percent$$00000006)
    .ARM.Collect$$_printf_percent$$00000007  0x0800025c   Section       10  _printf_ll.o(.ARM.Collect$$_printf_percent$$00000007)
    .ARM.Collect$$_printf_percent$$00000008  0x08000266   Section        6  _printf_i.o(.ARM.Collect$$_printf_percent$$00000008)
    .ARM.Collect$$_printf_percent$$00000009  0x0800026c   Section        6  _printf_d.o(.ARM.Collect$$_printf_percent$$00000009)
    .ARM.Collect$$_printf_percent$$0000000A  0x08000272   Section        6  _printf_u.o(.ARM.Collect$$_printf_percent$$0000000A)
    .ARM.Collect$$_printf_percent$$0000000B  0x08000278   Section        6  _printf_o.o(.ARM.Collect$$_printf_percent$$0000000B)
    .ARM.Collect$$_printf_percent$$0000000C  0x0800027e   Section        6  _printf_x.o(.ARM.Collect$$_printf_percent$$0000000C)
    .ARM.Collect$$_printf_percent$$0000000D  0x08000284   Section        6  _printf_lli.o(.ARM.Collect$$_printf_percent$$0000000D)
    .ARM.Collect$$_printf_percent$$0000000E  0x0800028a   Section        6  _printf_lld.o(.ARM.Collect$$_printf_percent$$0000000E)
    .ARM.Collect$$_printf_percent$$0000000F  0x08000290   Section        6  _printf_llu.o(.ARM.Collect$$_printf_percent$$0000000F)
    .ARM.Collect$$_printf_percent$$00000010  0x08000296   Section        6  _printf_llo.o(.ARM.Collect$$_printf_percent$$00000010)
    .ARM.Collect$$_printf_percent$$00000011  0x0800029c   Section        6  _printf_llx.o(.ARM.Collect$$_printf_percent$$00000011)
    .ARM.Collect$$_printf_percent$$00000012  0x080002a2   Section       10  _printf_l.o(.ARM.Collect$$_printf_percent$$00000012)
    .ARM.Collect$$_printf_percent$$00000013  0x080002ac   Section        6  _printf_c.o(.ARM.Collect$$_printf_percent$$00000013)
    .ARM.Collect$$_printf_percent$$00000014  0x080002b2   Section        6  _printf_s.o(.ARM.Collect$$_printf_percent$$00000014)
    .ARM.Collect$$_printf_percent$$00000015  0x080002b8   Section        6  _printf_lc.o(.ARM.Collect$$_printf_percent$$00000015)
    .ARM.Collect$$_printf_percent$$00000016  0x080002be   Section        6  _printf_ls.o(.ARM.Collect$$_printf_percent$$00000016)
    .ARM.Collect$$_printf_percent$$00000017  0x080002c4   Section        4  _printf_percent_end.o(.ARM.Collect$$_printf_percent$$00000017)
    .ARM.Collect$$libinit$$00000000          0x080002c8   Section        2  libinit.o(.ARM.Collect$$libinit$$00000000)
    .ARM.Collect$$libinit$$00000001          0x080002ca   Section        4  libinit2.o(.ARM.Collect$$libinit$$00000001)
    .ARM.Collect$$libinit$$00000004          0x080002ce   Section        0  libinit2.o(.ARM.Collect$$libinit$$00000004)
    .ARM.Collect$$libinit$$00000006          0x080002ce   Section        0  libinit2.o(.ARM.Collect$$libinit$$00000006)
    .ARM.Collect$$libinit$$00000007          0x080002ce   Section        8  libinit2.o(.ARM.Collect$$libinit$$00000007)
    .ARM.Collect$$libinit$$0000000C          0x080002d6   Section        0  libinit2.o(.ARM.Collect$$libinit$$0000000C)
    .ARM.Collect$$libinit$$0000000E          0x080002d6   Section        0  libinit2.o(.ARM.Collect$$libinit$$0000000E)
    .ARM.Collect$$libinit$$0000000F          0x080002d6   Section        4  libinit2.o(.ARM.Collect$$libinit$$0000000F)
    .ARM.Collect$$libinit$$00000010          0x080002da   Section        0  libinit2.o(.ARM.Collect$$libinit$$00000010)
    .ARM.Collect$$libinit$$00000011          0x080002da   Section        6  libinit2.o(.ARM.Collect$$libinit$$00000011)
    .ARM.Collect$$libinit$$00000013          0x080002e0   Section        0  libinit2.o(.ARM.Collect$$libinit$$00000013)
    .ARM.Collect$$libinit$$00000014          0x080002e0   Section       12  libinit2.o(.ARM.Collect$$libinit$$00000014)
    .ARM.Collect$$libinit$$00000015          0x080002ec   Section        0  libinit2.o(.ARM.Collect$$libinit$$00000015)
    .ARM.Collect$$libinit$$00000017          0x080002ec   Section        0  libinit2.o(.ARM.Collect$$libinit$$00000017)
    .ARM.Collect$$libinit$$00000018          0x080002ec   Section       10  libinit2.o(.ARM.Collect$$libinit$$00000018)
    .ARM.Collect$$libinit$$00000019          0x080002f6   Section        0  libinit2.o(.ARM.Collect$$libinit$$00000019)
    .ARM.Collect$$libinit$$0000001B          0x080002f6   Section        0  libinit2.o(.ARM.Collect$$libinit$$0000001B)
    .ARM.Collect$$libinit$$0000001D          0x080002f6   Section        0  libinit2.o(.ARM.Collect$$libinit$$0000001D)
    .ARM.Collect$$libinit$$0000001F          0x080002f6   Section        0  libinit2.o(.ARM.Collect$$libinit$$0000001F)
    .ARM.Collect$$libinit$$00000021          0x080002f6   Section        0  libinit2.o(.ARM.Collect$$libinit$$00000021)
    .ARM.Collect$$libinit$$00000023          0x080002f6   Section        0  libinit2.o(.ARM.Collect$$libinit$$00000023)
    .ARM.Collect$$libinit$$00000025          0x080002f6   Section        0  libinit2.o(.ARM.Collect$$libinit$$00000025)
    .ARM.Collect$$libinit$$00000026          0x080002f6   Section        4  libinit2.o(.ARM.Collect$$libinit$$00000026)
    .ARM.Collect$$libinit$$00000027          0x080002fa   Section        0  libinit2.o(.ARM.Collect$$libinit$$00000027)
    .ARM.Collect$$libinit$$0000002E          0x080002fa   Section        0  libinit2.o(.ARM.Collect$$libinit$$0000002E)
    .ARM.Collect$$libinit$$00000030          0x080002fa   Section        0  libinit2.o(.ARM.Collect$$libinit$$00000030)
    .ARM.Collect$$libinit$$00000032          0x080002fa   Section        0  libinit2.o(.ARM.Collect$$libinit$$00000032)
    .ARM.Collect$$libinit$$00000034          0x080002fa   Section        0  libinit2.o(.ARM.Collect$$libinit$$00000034)
    .ARM.Collect$$libinit$$00000035          0x080002fa   Section        2  libinit2.o(.ARM.Collect$$libinit$$00000035)
    .ARM.Collect$$libshutdown$$00000000      0x080002fc   Section        2  libshutdown.o(.ARM.Collect$$libshutdown$$00000000)
    .ARM.Collect$$libshutdown$$00000002      0x080002fe   Section        0  libshutdown2.o(.ARM.Collect$$libshutdown$$00000002)
    .ARM.Collect$$libshutdown$$00000003      0x080002fe   Section        4  libshutdown2.o(.ARM.Collect$$libshutdown$$00000003)
    .ARM.Collect$$libshutdown$$00000004      0x08000302   Section        0  libshutdown2.o(.ARM.Collect$$libshutdown$$00000004)
    .ARM.Collect$$libshutdown$$00000007      0x08000302   Section        0  libshutdown2.o(.ARM.Collect$$libshutdown$$00000007)
    .ARM.Collect$$libshutdown$$0000000A      0x08000302   Section        0  libshutdown2.o(.ARM.Collect$$libshutdown$$0000000A)
    .ARM.Collect$$libshutdown$$0000000C      0x08000302   Section        0  libshutdown2.o(.ARM.Collect$$libshutdown$$0000000C)
    .ARM.Collect$$libshutdown$$0000000F      0x08000302   Section        0  libshutdown2.o(.ARM.Collect$$libshutdown$$0000000F)
    .ARM.Collect$$libshutdown$$00000010      0x08000302   Section        2  libshutdown2.o(.ARM.Collect$$libshutdown$$00000010)
    .ARM.Collect$$rtentry$$00000000          0x08000304   Section        0  __rtentry.o(.ARM.Collect$$rtentry$$00000000)
    .ARM.Collect$$rtentry$$00000002          0x08000304   Section        0  __rtentry2.o(.ARM.Collect$$rtentry$$00000002)
    .ARM.Collect$$rtentry$$00000004          0x08000304   Section        6  __rtentry4.o(.ARM.Collect$$rtentry$$00000004)
    .ARM.Collect$$rtentry$$00000009          0x0800030a   Section        0  __rtentry2.o(.ARM.Collect$$rtentry$$00000009)
    .ARM.Collect$$rtentry$$0000000A          0x0800030a   Section        4  __rtentry2.o(.ARM.Collect$$rtentry$$0000000A)
    .ARM.Collect$$rtentry$$0000000C          0x0800030e   Section        0  __rtentry2.o(.ARM.Collect$$rtentry$$0000000C)
    .ARM.Collect$$rtentry$$0000000D          0x0800030e   Section        8  __rtentry2.o(.ARM.Collect$$rtentry$$0000000D)
    .ARM.Collect$$rtexit$$00000000           0x08000316   Section        2  rtexit.o(.ARM.Collect$$rtexit$$00000000)
    .ARM.Collect$$rtexit$$00000002           0x08000318   Section        0  rtexit2.o(.ARM.Collect$$rtexit$$00000002)
    .ARM.Collect$$rtexit$$00000003           0x08000318   Section        4  rtexit2.o(.ARM.Collect$$rtexit$$00000003)
    .ARM.Collect$$rtexit$$00000004           0x0800031c   Section        6  rtexit2.o(.ARM.Collect$$rtexit$$00000004)
    .emb_text                                0x08000324   Section       52  rand.o(.emb_text)
    $v0                                      0x08000358   Number         0  startup_stm32f446xx.o(.text)
    .text                                    0x08000358   Section       64  startup_stm32f446xx.o(.text)
    .text                                    0x08000398   Section        0  printf.o(.text)
    .text                                    0x080003b0   Section        0  abs.o(.text)
    .text                                    0x080003b8   Section        0  rand.o(.text)
    .text                                    0x080003f4   Section        0  strlen.o(.text)
    .text                                    0x08000438   Section      124  strcmpv7em.o(.text)
    .text                                    0x080004b4   Section        0  heapauxi.o(.text)
    .text                                    0x080004ba   Section        0  _printf_pad.o(.text)
    .text                                    0x08000508   Section        0  _printf_truncate.o(.text)
    .text                                    0x0800052c   Section        0  _printf_str.o(.text)
    .text                                    0x08000580   Section        0  _printf_dec.o(.text)
    .text                                    0x080005f8   Section        0  _printf_charcount.o(.text)
    .text                                    0x08000620   Section        0  _printf_char_file.o(.text)
    .text                                    0x08000644   Section        0  _printf_wctomb.o(.text)
    .text                                    0x08000700   Section        0  _printf_longlong_dec.o(.text)
    _printf_longlong_oct_internal            0x0800077d   Thumb Code     0  _printf_oct_int_ll.o(.text)
    .text                                    0x0800077c   Section        0  _printf_oct_int_ll.o(.text)
    _printf_hex_common                       0x080007ed   Thumb Code     0  _printf_hex_int_ll_ptr.o(.text)
    .text                                    0x080007ec   Section        0  _printf_hex_int_ll_ptr.o(.text)
    .text                                    0x08000880   Section        0  __printf_flags_ss_wp.o(.text)
    .text                                    0x08000a08   Section      138  lludiv10.o(.text)
    .text                                    0x08000a92   Section        0  _printf_intcommon.o(.text)
    _fp_digits                               0x08000b45   Thumb Code   432  _printf_fp_dec.o(.text)
    .text                                    0x08000b44   Section        0  _printf_fp_dec.o(.text)
    .text                                    0x08000f60   Section        0  _printf_fp_hex.o(.text)
    _printf_input_char                       0x0800125d   Thumb Code    10  _printf_char_common.o(.text)
    .text                                    0x0800125c   Section        0  _printf_char_common.o(.text)
    .text                                    0x0800128c   Section        0  _printf_char.o(.text)
    .text                                    0x080012b8   Section        0  _printf_wchar.o(.text)
    .text                                    0x080012e4   Section        0  ferror.o(.text)
    .text                                    0x080012ec   Section        0  initio.o(.text)
    .text                                    0x08001424   Section        0  _c16rtomb.o(.text)
    .text                                    0x0800146c   Section       74  sys_stackheap_outer.o(.text)
    .text                                    0x080014b8   Section       16  rt_ctype_table.o(.text)
    .text                                    0x080014c8   Section        8  rt_locale_intlibspace.o(.text)
    .text                                    0x080014d0   Section        0  h1_free.o(.text)
    .text                                    0x08001520   Section        0  _printf_fp_infnan.o(.text)
    .text                                    0x080015a0   Section        0  bigflt0.o(.text)
    .text                                    0x08001684   Section        0  flsbuf.o(.text)
    .text                                    0x08001866   Section        0  setvbuf.o(.text)
    _freopen_locked                          0x080018ad   Thumb Code     0  fopen.o(.text)
    .text                                    0x080018ac   Section        0  fopen.o(.text)
    .text                                    0x0800199c   Section        0  fclose.o(.text)
    .text                                    0x080019e8   Section        0  exit.o(.text)
    .text                                    0x080019fa   Section        0  defsig_rtred_outer.o(.text)
    .text                                    0x08001a08   Section       78  rt_memclr_w.o(.text)
    .text                                    0x08001a58   Section        8  libspace.o(.text)
    .text                                    0x08001a60   Section        8  rt_heap_descriptor_intlibspace.o(.text)
    .text                                    0x08001a68   Section        0  hguard.o(.text)
    .text                                    0x08001a6c   Section        0  init_alloc.o(.text)
    .text                                    0x08001af6   Section        0  h1_alloc.o(.text)
    .text                                    0x08001b54   Section        0  fseek.o(.text)
    .text                                    0x08001c4c   Section        0  stdio.o(.text)
    .text                                    0x08001d54   Section        0  defsig_exit.o(.text)
    .text                                    0x08001d60   Section        0  defsig_rtred_inner.o(.text)
    .text                                    0x08001d94   Section        0  defsig_rtmem_outer.o(.text)
    .text                                    0x08001da4   Section        0  sys_exit.o(.text)
    .text                                    0x08001db0   Section        2  use_no_semi.o(.text)
    .text                                    0x08001db2   Section        0  indicate_semi.o(.text)
    .text                                    0x08001db2   Section        0  maybetermalloc1.o(.text)
    .text                                    0x08001db2   Section        0  h1_init.o(.text)
    .text                                    0x08001dc0   Section        0  h1_extend.o(.text)
    .text                                    0x08001df4   Section        0  ftell.o(.text)
    .text                                    0x08001e36   Section        0  defsig_general.o(.text)
    .text                                    0x08001e68   Section        0  defsig_rtmem_inner.o(.text)
    .text                                    0x08001eb8   Section        0  sys_wrch.o(.text)
    .text                                    0x08001ec8   Section        8  rt_errno_addr_intlibspace.o(.text)
    [Anonymous Symbol]                       0x08001ed0   Section        0  piezo.o(.text.Buzzer_Stop)
    [Anonymous Symbol]                       0x08001ef4   Section        0  spi.o(.text.CS_Low)
    [Anonymous Symbol]                       0x08001f04   Section        0  ili9341.o(.text.Display_Init)
    [Anonymous Symbol]                       0x08002390   Section        0  ili9341.o(.text.Draw_Bitmap)
    [Anonymous Symbol]                       0x08002438   Section        0  ili9341.o(.text.Draw_Char_BG)
    [Anonymous Symbol]                       0x080025ac   Section        0  ili9341.o(.text.Draw_Pixel)
    [Anonymous Symbol]                       0x080025f4   Section        0  ili9341.o(.text.Draw_String_BG)
    [Anonymous Symbol]                       0x08002710   Section        0  testmain.o(.text.EXTI15_10_IRQHandler)
    [Anonymous Symbol]                       0x0800277c   Section        0  testmain.o(.text.EXTI4_IRQHandler)
    [Anonymous Symbol]                       0x08002978   Section        0  rotary_encoder.o(.text.Encoder_TIM_init)
    [Anonymous Symbol]                       0x080029e8   Section        0  rotary_encoder.o(.text.Encoder_init)
    [Anonymous Symbol]                       0x08002aac   Section        0  servo.o(.text.Eye_Move_To)
    [Anonymous Symbol]                       0x08002ac0   Section        0  servo.o(.text.Eyelid_Move_To)
    [Anonymous Symbol]                       0x08002ad4   Section        0  ili9341.o(.text.Fill_Color)
    [Anonymous Symbol]                       0x08002b80   Section        0  ili9341.o(.text.Fill_Rect)
    [Anonymous Symbol]                       0x08002c8c   Section        0  ili9341.o(.text.Fill_Screen)
    [Anonymous Symbol]                       0x08002ce4   Section        0  ili9341.o(.text.GPIO_PinMode_Setup)
    [Anonymous Symbol]                       0x08002d44   Section        0  health_bar.o(.text.HealthClear)
    [Anonymous Symbol]                       0x08002dcc   Section        0  health_bar.o(.text.HealthCurrent)
    [Anonymous Symbol]                       0x08002e64   Section        0  health_bar.o(.text.HealthMinusMinus)
    [Anonymous Symbol]                       0x08002f2c   Section        0  health_bar.o(.text.HealthPlusPlus)
    [Anonymous Symbol]                       0x08002ff8   Section        0  i2c.o(.text.I2C1_byteRead)
    [Anonymous Symbol]                       0x08003144   Section        0  i2c.o(.text.I2C1_byteWrite)
    [Anonymous Symbol]                       0x08003234   Section        0  i2c.o(.text.I2C_init)
    [Anonymous Symbol]                       0x080032d8   Section        0  ili9341.o(.text.ILI_8Bit_Command)
    [Anonymous Symbol]                       0x08003318   Section        0  ili9341.o(.text.ILI_8Bit_Data)
    [Anonymous Symbol]                       0x08003358   Section        0  ili9341.o(.text.ILI_Push_16Bit)
    [Anonymous Symbol]                       0x08003374   Section        0  retarget_io.o(.text.ITM_SendChar)
    [Anonymous Symbol]                       0x080033b8   Section        0  sevenseg.o(.text.Init_seq)
    [Anonymous Symbol]                       0x0800343c   Section        0  testmain.o(.text.MENU_SCREENS)
    [Anonymous Symbol]                       0x08003b9c   Section        0  piezo.o(.text.Play_Tone_1)
    [Anonymous Symbol]                       0x08003bb4   Section        0  piezo.o(.text.Play_Tone_2)
    [Anonymous Symbol]                       0x08003bd0   Section        0  piezo.o(.text.Play_Tone_3)
    [Anonymous Symbol]                       0x08003bec   Section        0  piezo.o(.text.Play_Tone_4)
    [Anonymous Symbol]                       0x08003c08   Section        0  adc.o(.text.Read_ADC)
    [Anonymous Symbol]                       0x08003d08   Section        0  testmain.o(.text.Read_Date)
    [Anonymous Symbol]                       0x08003e70   Section        0  testmain.o(.text.Read_Time)
    [Anonymous Symbol]                       0x08003fd8   Section        0  ili9341.o(.text.Rotate_Display)
    [Anonymous Symbol]                       0x08004134   Section        0  spi.o(.text.SPI_Enable)
    [Anonymous Symbol]                       0x08004148   Section        0  spi.o(.text.SPI_GPIO)
    [Anonymous Symbol]                       0x08004204   Section        0  spi.o(.text.SPI_Init)
    [Anonymous Symbol]                       0x0800425c   Section        0  spi.o(.text.SPI_Transmit)
    [Anonymous Symbol]                       0x080042fc   Section        0  ili9341.o(.text.Set_Address_Window)
    [Anonymous Symbol]                       0x08004348   Section        0  testmain.o(.text.Set_Date)
    [Anonymous Symbol]                       0x08004384   Section        0  testmain.o(.text.Set_TD)
    [Anonymous Symbol]                       0x08004674   Section        0  testmain.o(.text.Set_Time)
    [Anonymous Symbol]                       0x080046b0   Section        0  ili9341.o(.text.SysTick_Init)
    [Anonymous Symbol]                       0x080046e0   Section        0  system_stm32f4xx.o(.text.SystemInit)
    [Anonymous Symbol]                       0x080046f4   Section        0  servo.o(.text.TIM1_CH1_Disable)
    [Anonymous Symbol]                       0x08004704   Section        0  servo.o(.text.TIM1_CH1_Enable)
    [Anonymous Symbol]                       0x08004714   Section        0  servo.o(.text.TIM1_CH2_Disable)
    [Anonymous Symbol]                       0x08004724   Section        0  servo.o(.text.TIM1_CH2_Enable)
    [Anonymous Symbol]                       0x08004734   Section        0  servo.o(.text.TIM1_CH3_Disable)
    [Anonymous Symbol]                       0x08004744   Section        0  servo.o(.text.TIM1_CH3_Enable)
    [Anonymous Symbol]                       0x08004754   Section        0  servo.o(.text.TIM1_setup)
    [Anonymous Symbol]                       0x0800483c   Section        0  testmain.o(.text.TIM5_IRQHandler)
    [Anonymous Symbol]                       0x08004950   Section        0  servo.o(.text.TIM6_DAC_IRQHandler)
    [Anonymous Symbol]                       0x080049e0   Section        0  piezo.o(.text.TIM7_IRQHandler)
    [Anonymous Symbol]                       0x08004bd0   Section        0  servo.o(.text.TIM_GPIO)
    [Anonymous Symbol]                       0x08004c50   Section        0  servo.o(.text.Timer6_Init)
    [Anonymous Symbol]                       0x08004cbc   Section        0  piezo.o(.text.Timer7_Init)
    Timer8_Init                              0x08004d2d   Thumb Code   228  piezo.o(.text.Timer8_Init)
    [Anonymous Symbol]                       0x08004d2c   Section        0  piezo.o(.text.Timer8_Init)
    [Anonymous Symbol]                       0x08004e10   Section        0  servo.o(.text.Tongue_Move_To)
    [Anonymous Symbol]                       0x08004e24   Section        0  testmain.o(.text.WDT_init)
    [Anonymous Symbol]                       0x08004e64   Section        0  testmain.o(.text.WDT_reset)
    __NVIC_EnableIRQ                         0x08004e79   Thumb Code    48  hall.o(.text.__NVIC_EnableIRQ)
    [Anonymous Symbol]                       0x08004e78   Section        0  hall.o(.text.__NVIC_EnableIRQ)
    __NVIC_EnableIRQ                         0x08004ea9   Thumb Code    48  rotary_encoder.o(.text.__NVIC_EnableIRQ)
    [Anonymous Symbol]                       0x08004ea8   Section        0  rotary_encoder.o(.text.__NVIC_EnableIRQ)
    __NVIC_EnableIRQ                         0x08004ed9   Thumb Code    48  servo.o(.text.__NVIC_EnableIRQ)
    [Anonymous Symbol]                       0x08004ed8   Section        0  servo.o(.text.__NVIC_EnableIRQ)
    __NVIC_EnableIRQ                         0x08004f09   Thumb Code    48  health_bar.o(.text.__NVIC_EnableIRQ)
    [Anonymous Symbol]                       0x08004f08   Section        0  health_bar.o(.text.__NVIC_EnableIRQ)
    __NVIC_EnableIRQ                         0x08004f39   Thumb Code    48  piezo.o(.text.__NVIC_EnableIRQ)
    [Anonymous Symbol]                       0x08004f38   Section        0  piezo.o(.text.__NVIC_EnableIRQ)
    [Anonymous Symbol]                       0x08004f68   Section        0  retarget_io.o(.text._sys_close)
    [Anonymous Symbol]                       0x08004fb4   Section        0  retarget_io.o(.text._sys_flen)
    [Anonymous Symbol]                       0x08004ffc   Section        0  retarget_io.o(.text._sys_istty)
    [Anonymous Symbol]                       0x08005044   Section        0  retarget_io.o(.text._sys_open)
    [Anonymous Symbol]                       0x080050c8   Section        0  retarget_io.o(.text._sys_seek)
    [Anonymous Symbol]                       0x0800511c   Section        0  retarget_io.o(.text._sys_write)
    [Anonymous Symbol]                       0x080051b4   Section        0  adc.o(.text.adc_init)
    [Anonymous Symbol]                       0x0800523c   Section        0  ili9341.o(.text.delayMS)
    [Anonymous Symbol]                       0x08005280   Section        0  ili9341.o(.text.delayMicroS)
    [Anonymous Symbol]                       0x080052c4   Section        0  sonar.o(.text.dist)
    [Anonymous Symbol]                       0x0800532c   Section        0  hall.o(.text.hallEffect_pinInit)
    [Anonymous Symbol]                       0x080053f0   Section        0  health_bar.o(.text.init_ShiftRegister)
    [Anonymous Symbol]                       0x0800545c   Section        0  testmain.o(.text.main)
    [Anonymous Symbol]                       0x08005af4   Section        0  piezo.o(.text.millis)
    [Anonymous Symbol]                       0x08005b04   Section        0  sevenseg.o(.text.sevenSeg_write)
    [Anonymous Symbol]                       0x08005b90   Section        0  sonar.o(.text.sonar_gpio_init)
    stderr_putchar                           0x08005cc5   Thumb Code    16  retarget_io.o(.text.stderr_putchar)
    [Anonymous Symbol]                       0x08005cc4   Section        0  retarget_io.o(.text.stderr_putchar)
    stdout_putchar                           0x08005cd5   Thumb Code    16  retarget_io.o(.text.stdout_putchar)
    [Anonymous Symbol]                       0x08005cd4   Section        0  retarget_io.o(.text.stdout_putchar)
    [Anonymous Symbol]                       0x08005ce4   Section        0  stepper.o(.text.stepper_init)
    [Anonymous Symbol]                       0x08005d68   Section        0  health_bar.o(.text.tim5_init)
    CL$$btod_d2e                             0x08005dd2   Section       62  btod.o(CL$$btod_d2e)
    CL$$btod_d2e_denorm_low                  0x08005e10   Section       70  btod.o(CL$$btod_d2e_denorm_low)
    CL$$btod_d2e_norm_op1                    0x08005e56   Section       96  btod.o(CL$$btod_d2e_norm_op1)
    CL$$btod_div_common                      0x08005eb8   Section      824  btod.o(CL$$btod_div_common)
    CL$$btod_e2e                             0x080061f0   Section      220  btod.o(CL$$btod_e2e)
    CL$$btod_ediv                            0x080062cc   Section       42  btod.o(CL$$btod_ediv)
    CL$$btod_emul                            0x080062f6   Section       42  btod.o(CL$$btod_emul)
    CL$$btod_mult_common                     0x08006320   Section      580  btod.o(CL$$btod_mult_common)
    i.__ARM_fpclassify                       0x08006564   Section        0  fpclassify.o(i.__ARM_fpclassify)
    i._is_digit                              0x08006594   Section        0  __printf_wp.o(i._is_digit)
    i.fputc                                  0x080065a2   Section        0  fputc.o(i.fputc)
    locale$$code                             0x080065c0   Section       44  lc_numeric_c.o(locale$$code)
    locale$$code                             0x080065ec   Section       44  lc_ctype_c.o(locale$$code)
    $v0                                      0x08006618   Number         0  daddsub_clz.o(x$fpl$dadd)
    x$fpl$dadd                               0x08006618   Section      336  daddsub_clz.o(x$fpl$dadd)
    _dadd1                                   0x08006629   Thumb Code     0  daddsub_clz.o(x$fpl$dadd)
    $v0                                      0x08006768   Number         0  dfix.o(x$fpl$dfix)
    x$fpl$dfix                               0x08006768   Section       94  dfix.o(x$fpl$dfix)
    $v0                                      0x080067c6   Number         0  dflt_clz.o(x$fpl$dflt)
    x$fpl$dflt                               0x080067c6   Section       46  dflt_clz.o(x$fpl$dflt)
    $v0                                      0x080067f4   Number         0  dmul.o(x$fpl$dmul)
    x$fpl$dmul                               0x080067f4   Section      340  dmul.o(x$fpl$dmul)
    $v0                                      0x08006948   Number         0  dnaninf.o(x$fpl$dnaninf)
    x$fpl$dnaninf                            0x08006948   Section      156  dnaninf.o(x$fpl$dnaninf)
    $v0                                      0x080069e4   Number         0  dretinf.o(x$fpl$dretinf)
    x$fpl$dretinf                            0x080069e4   Section       12  dretinf.o(x$fpl$dretinf)
    $v0                                      0x080069f0   Number         0  daddsub_clz.o(x$fpl$dsub)
    x$fpl$dsub                               0x080069f0   Section      476  daddsub_clz.o(x$fpl$dsub)
    _dsub1                                   0x08006a01   Thumb Code     0  daddsub_clz.o(x$fpl$dsub)
    $v0                                      0x08006bcc   Number         0  fpinit.o(x$fpl$fpinit)
    x$fpl$fpinit                             0x08006bcc   Section       26  fpinit.o(x$fpl$fpinit)
    $v0                                      0x08006be6   Number         0  printf1.o(x$fpl$printf1)
    x$fpl$printf1                            0x08006be6   Section        4  printf1.o(x$fpl$printf1)
    $v0                                      0x08006bea   Number         0  printf2.o(x$fpl$printf2)
    x$fpl$printf2                            0x08006bea   Section        4  printf2.o(x$fpl$printf2)
    x$fpl$usenofp                            0x08006bee   Section        0  usenofp.o(x$fpl$usenofp)
    initial_mbstate                          0x08006bf0   Data           8  _printf_wctomb.o(.constdata)
    .constdata                               0x08006bf0   Section        8  _printf_wctomb.o(.constdata)
    uc_hextab                                0x08006bf8   Data          20  _printf_hex_int_ll_ptr.o(.constdata)
    .constdata                               0x08006bf8   Section       40  _printf_hex_int_ll_ptr.o(.constdata)
    lc_hextab                                0x08006c0c   Data          20  _printf_hex_int_ll_ptr.o(.constdata)
    maptable                                 0x08006c20   Data          17  __printf_flags_ss_wp.o(.constdata)
    .constdata                               0x08006c20   Section       17  __printf_flags_ss_wp.o(.constdata)
    lc_hextab                                0x08006c31   Data          19  _printf_fp_hex.o(.constdata)
    .constdata                               0x08006c31   Section       38  _printf_fp_hex.o(.constdata)
    uc_hextab                                0x08006c44   Data          19  _printf_fp_hex.o(.constdata)
    tenpwrs_x                                0x08006c58   Data          60  bigflt0.o(.constdata)
    .constdata                               0x08006c58   Section      148  bigflt0.o(.constdata)
    tenpwrs_i                                0x08006c94   Data          64  bigflt0.o(.constdata)
    font_ubuntu_mono_24                      0x08059c10   Data           8  testmain.o(.rodata.font_ubuntu_mono_24)
    [Anonymous Symbol]                       0x08059c10   Section        0  testmain.o(.rodata.font_ubuntu_mono_24)
    font_ubuntu_mono_24_0x20                 0x08059c18   Data          12  testmain.o(.rodata.font_ubuntu_mono_24_0x20)
    [Anonymous Symbol]                       0x08059c18   Section        0  testmain.o(.rodata.font_ubuntu_mono_24_0x20)
    font_ubuntu_mono_24_0x21                 0x08059c24   Data          12  testmain.o(.rodata.font_ubuntu_mono_24_0x21)
    [Anonymous Symbol]                       0x08059c24   Section        0  testmain.o(.rodata.font_ubuntu_mono_24_0x21)
    font_ubuntu_mono_24_0x22                 0x08059c30   Data          12  testmain.o(.rodata.font_ubuntu_mono_24_0x22)
    [Anonymous Symbol]                       0x08059c30   Section        0  testmain.o(.rodata.font_ubuntu_mono_24_0x22)
    font_ubuntu_mono_24_0x23                 0x08059c3c   Data          12  testmain.o(.rodata.font_ubuntu_mono_24_0x23)
    [Anonymous Symbol]                       0x08059c3c   Section        0  testmain.o(.rodata.font_ubuntu_mono_24_0x23)
    font_ubuntu_mono_24_0x24                 0x08059c48   Data          12  testmain.o(.rodata.font_ubuntu_mono_24_0x24)
    [Anonymous Symbol]                       0x08059c48   Section        0  testmain.o(.rodata.font_ubuntu_mono_24_0x24)
    font_ubuntu_mono_24_0x25                 0x08059c54   Data          12  testmain.o(.rodata.font_ubuntu_mono_24_0x25)
    [Anonymous Symbol]                       0x08059c54   Section        0  testmain.o(.rodata.font_ubuntu_mono_24_0x25)
    font_ubuntu_mono_24_0x26                 0x08059c60   Data          12  testmain.o(.rodata.font_ubuntu_mono_24_0x26)
    [Anonymous Symbol]                       0x08059c60   Section        0  testmain.o(.rodata.font_ubuntu_mono_24_0x26)
    font_ubuntu_mono_24_0x27                 0x08059c6c   Data          12  testmain.o(.rodata.font_ubuntu_mono_24_0x27)
    [Anonymous Symbol]                       0x08059c6c   Section        0  testmain.o(.rodata.font_ubuntu_mono_24_0x27)
    font_ubuntu_mono_24_0x28                 0x08059c78   Data          12  testmain.o(.rodata.font_ubuntu_mono_24_0x28)
    [Anonymous Symbol]                       0x08059c78   Section        0  testmain.o(.rodata.font_ubuntu_mono_24_0x28)
    font_ubuntu_mono_24_0x29                 0x08059c84   Data          12  testmain.o(.rodata.font_ubuntu_mono_24_0x29)
    [Anonymous Symbol]                       0x08059c84   Section        0  testmain.o(.rodata.font_ubuntu_mono_24_0x29)
    font_ubuntu_mono_24_0x2a                 0x08059c90   Data          12  testmain.o(.rodata.font_ubuntu_mono_24_0x2a)
    [Anonymous Symbol]                       0x08059c90   Section        0  testmain.o(.rodata.font_ubuntu_mono_24_0x2a)
    font_ubuntu_mono_24_0x2b                 0x08059c9c   Data          12  testmain.o(.rodata.font_ubuntu_mono_24_0x2b)
    [Anonymous Symbol]                       0x08059c9c   Section        0  testmain.o(.rodata.font_ubuntu_mono_24_0x2b)
    font_ubuntu_mono_24_0x2c                 0x08059ca8   Data          12  testmain.o(.rodata.font_ubuntu_mono_24_0x2c)
    [Anonymous Symbol]                       0x08059ca8   Section        0  testmain.o(.rodata.font_ubuntu_mono_24_0x2c)
    font_ubuntu_mono_24_0x2d                 0x08059cb4   Data          12  testmain.o(.rodata.font_ubuntu_mono_24_0x2d)
    [Anonymous Symbol]                       0x08059cb4   Section        0  testmain.o(.rodata.font_ubuntu_mono_24_0x2d)
    font_ubuntu_mono_24_0x2e                 0x08059cc0   Data          12  testmain.o(.rodata.font_ubuntu_mono_24_0x2e)
    [Anonymous Symbol]                       0x08059cc0   Section        0  testmain.o(.rodata.font_ubuntu_mono_24_0x2e)
    font_ubuntu_mono_24_0x2f                 0x08059ccc   Data          12  testmain.o(.rodata.font_ubuntu_mono_24_0x2f)
    [Anonymous Symbol]                       0x08059ccc   Section        0  testmain.o(.rodata.font_ubuntu_mono_24_0x2f)
    font_ubuntu_mono_24_0x30                 0x08059cd8   Data          12  testmain.o(.rodata.font_ubuntu_mono_24_0x30)
    [Anonymous Symbol]                       0x08059cd8   Section        0  testmain.o(.rodata.font_ubuntu_mono_24_0x30)
    font_ubuntu_mono_24_0x31                 0x08059ce4   Data          12  testmain.o(.rodata.font_ubuntu_mono_24_0x31)
    [Anonymous Symbol]                       0x08059ce4   Section        0  testmain.o(.rodata.font_ubuntu_mono_24_0x31)
    font_ubuntu_mono_24_0x32                 0x08059cf0   Data          12  testmain.o(.rodata.font_ubuntu_mono_24_0x32)
    [Anonymous Symbol]                       0x08059cf0   Section        0  testmain.o(.rodata.font_ubuntu_mono_24_0x32)
    font_ubuntu_mono_24_0x33                 0x08059cfc   Data          12  testmain.o(.rodata.font_ubuntu_mono_24_0x33)
    [Anonymous Symbol]                       0x08059cfc   Section        0  testmain.o(.rodata.font_ubuntu_mono_24_0x33)
    font_ubuntu_mono_24_0x34                 0x08059d08   Data          12  testmain.o(.rodata.font_ubuntu_mono_24_0x34)
    [Anonymous Symbol]                       0x08059d08   Section        0  testmain.o(.rodata.font_ubuntu_mono_24_0x34)
    font_ubuntu_mono_24_0x35                 0x08059d14   Data          12  testmain.o(.rodata.font_ubuntu_mono_24_0x35)
    [Anonymous Symbol]                       0x08059d14   Section        0  testmain.o(.rodata.font_ubuntu_mono_24_0x35)
    font_ubuntu_mono_24_0x36                 0x08059d20   Data          12  testmain.o(.rodata.font_ubuntu_mono_24_0x36)
    [Anonymous Symbol]                       0x08059d20   Section        0  testmain.o(.rodata.font_ubuntu_mono_24_0x36)
    font_ubuntu_mono_24_0x37                 0x08059d2c   Data          12  testmain.o(.rodata.font_ubuntu_mono_24_0x37)
    [Anonymous Symbol]                       0x08059d2c   Section        0  testmain.o(.rodata.font_ubuntu_mono_24_0x37)
    font_ubuntu_mono_24_0x38                 0x08059d38   Data          12  testmain.o(.rodata.font_ubuntu_mono_24_0x38)
    [Anonymous Symbol]                       0x08059d38   Section        0  testmain.o(.rodata.font_ubuntu_mono_24_0x38)
    font_ubuntu_mono_24_0x39                 0x08059d44   Data          12  testmain.o(.rodata.font_ubuntu_mono_24_0x39)
    [Anonymous Symbol]                       0x08059d44   Section        0  testmain.o(.rodata.font_ubuntu_mono_24_0x39)
    font_ubuntu_mono_24_0x3a                 0x08059d50   Data          12  testmain.o(.rodata.font_ubuntu_mono_24_0x3a)
    [Anonymous Symbol]                       0x08059d50   Section        0  testmain.o(.rodata.font_ubuntu_mono_24_0x3a)
    font_ubuntu_mono_24_0x3b                 0x08059d5c   Data          12  testmain.o(.rodata.font_ubuntu_mono_24_0x3b)
    [Anonymous Symbol]                       0x08059d5c   Section        0  testmain.o(.rodata.font_ubuntu_mono_24_0x3b)
    font_ubuntu_mono_24_0x3c                 0x08059d68   Data          12  testmain.o(.rodata.font_ubuntu_mono_24_0x3c)
    [Anonymous Symbol]                       0x08059d68   Section        0  testmain.o(.rodata.font_ubuntu_mono_24_0x3c)
    font_ubuntu_mono_24_0x3d                 0x08059d74   Data          12  testmain.o(.rodata.font_ubuntu_mono_24_0x3d)
    [Anonymous Symbol]                       0x08059d74   Section        0  testmain.o(.rodata.font_ubuntu_mono_24_0x3d)
    font_ubuntu_mono_24_0x3e                 0x08059d80   Data          12  testmain.o(.rodata.font_ubuntu_mono_24_0x3e)
    [Anonymous Symbol]                       0x08059d80   Section        0  testmain.o(.rodata.font_ubuntu_mono_24_0x3e)
    font_ubuntu_mono_24_0x3f                 0x08059d8c   Data          12  testmain.o(.rodata.font_ubuntu_mono_24_0x3f)
    [Anonymous Symbol]                       0x08059d8c   Section        0  testmain.o(.rodata.font_ubuntu_mono_24_0x3f)
    font_ubuntu_mono_24_0x40                 0x08059d98   Data          12  testmain.o(.rodata.font_ubuntu_mono_24_0x40)
    [Anonymous Symbol]                       0x08059d98   Section        0  testmain.o(.rodata.font_ubuntu_mono_24_0x40)
    font_ubuntu_mono_24_0x41                 0x08059da4   Data          12  testmain.o(.rodata.font_ubuntu_mono_24_0x41)
    [Anonymous Symbol]                       0x08059da4   Section        0  testmain.o(.rodata.font_ubuntu_mono_24_0x41)
    font_ubuntu_mono_24_0x42                 0x08059db0   Data          12  testmain.o(.rodata.font_ubuntu_mono_24_0x42)
    [Anonymous Symbol]                       0x08059db0   Section        0  testmain.o(.rodata.font_ubuntu_mono_24_0x42)
    font_ubuntu_mono_24_0x43                 0x08059dbc   Data          12  testmain.o(.rodata.font_ubuntu_mono_24_0x43)
    [Anonymous Symbol]                       0x08059dbc   Section        0  testmain.o(.rodata.font_ubuntu_mono_24_0x43)
    font_ubuntu_mono_24_0x44                 0x08059dc8   Data          12  testmain.o(.rodata.font_ubuntu_mono_24_0x44)
    [Anonymous Symbol]                       0x08059dc8   Section        0  testmain.o(.rodata.font_ubuntu_mono_24_0x44)
    font_ubuntu_mono_24_0x45                 0x08059dd4   Data          12  testmain.o(.rodata.font_ubuntu_mono_24_0x45)
    [Anonymous Symbol]                       0x08059dd4   Section        0  testmain.o(.rodata.font_ubuntu_mono_24_0x45)
    font_ubuntu_mono_24_0x46                 0x08059de0   Data          12  testmain.o(.rodata.font_ubuntu_mono_24_0x46)
    [Anonymous Symbol]                       0x08059de0   Section        0  testmain.o(.rodata.font_ubuntu_mono_24_0x46)
    font_ubuntu_mono_24_0x47                 0x08059dec   Data          12  testmain.o(.rodata.font_ubuntu_mono_24_0x47)
    [Anonymous Symbol]                       0x08059dec   Section        0  testmain.o(.rodata.font_ubuntu_mono_24_0x47)
    font_ubuntu_mono_24_0x48                 0x08059df8   Data          12  testmain.o(.rodata.font_ubuntu_mono_24_0x48)
    [Anonymous Symbol]                       0x08059df8   Section        0  testmain.o(.rodata.font_ubuntu_mono_24_0x48)
    font_ubuntu_mono_24_0x49                 0x08059e04   Data          12  testmain.o(.rodata.font_ubuntu_mono_24_0x49)
    [Anonymous Symbol]                       0x08059e04   Section        0  testmain.o(.rodata.font_ubuntu_mono_24_0x49)
    font_ubuntu_mono_24_0x4a                 0x08059e10   Data          12  testmain.o(.rodata.font_ubuntu_mono_24_0x4a)
    [Anonymous Symbol]                       0x08059e10   Section        0  testmain.o(.rodata.font_ubuntu_mono_24_0x4a)
    font_ubuntu_mono_24_0x4b                 0x08059e1c   Data          12  testmain.o(.rodata.font_ubuntu_mono_24_0x4b)
    [Anonymous Symbol]                       0x08059e1c   Section        0  testmain.o(.rodata.font_ubuntu_mono_24_0x4b)
    font_ubuntu_mono_24_0x4c                 0x08059e28   Data          12  testmain.o(.rodata.font_ubuntu_mono_24_0x4c)
    [Anonymous Symbol]                       0x08059e28   Section        0  testmain.o(.rodata.font_ubuntu_mono_24_0x4c)
    font_ubuntu_mono_24_0x4d                 0x08059e34   Data          12  testmain.o(.rodata.font_ubuntu_mono_24_0x4d)
    [Anonymous Symbol]                       0x08059e34   Section        0  testmain.o(.rodata.font_ubuntu_mono_24_0x4d)
    font_ubuntu_mono_24_0x4e                 0x08059e40   Data          12  testmain.o(.rodata.font_ubuntu_mono_24_0x4e)
    [Anonymous Symbol]                       0x08059e40   Section        0  testmain.o(.rodata.font_ubuntu_mono_24_0x4e)
    font_ubuntu_mono_24_0x4f                 0x08059e4c   Data          12  testmain.o(.rodata.font_ubuntu_mono_24_0x4f)
    [Anonymous Symbol]                       0x08059e4c   Section        0  testmain.o(.rodata.font_ubuntu_mono_24_0x4f)
    font_ubuntu_mono_24_0x50                 0x08059e58   Data          12  testmain.o(.rodata.font_ubuntu_mono_24_0x50)
    [Anonymous Symbol]                       0x08059e58   Section        0  testmain.o(.rodata.font_ubuntu_mono_24_0x50)
    font_ubuntu_mono_24_0x51                 0x08059e64   Data          12  testmain.o(.rodata.font_ubuntu_mono_24_0x51)
    [Anonymous Symbol]                       0x08059e64   Section        0  testmain.o(.rodata.font_ubuntu_mono_24_0x51)
    font_ubuntu_mono_24_0x52                 0x08059e70   Data          12  testmain.o(.rodata.font_ubuntu_mono_24_0x52)
    [Anonymous Symbol]                       0x08059e70   Section        0  testmain.o(.rodata.font_ubuntu_mono_24_0x52)
    font_ubuntu_mono_24_0x53                 0x08059e7c   Data          12  testmain.o(.rodata.font_ubuntu_mono_24_0x53)
    [Anonymous Symbol]                       0x08059e7c   Section        0  testmain.o(.rodata.font_ubuntu_mono_24_0x53)
    font_ubuntu_mono_24_0x54                 0x08059e88   Data          12  testmain.o(.rodata.font_ubuntu_mono_24_0x54)
    [Anonymous Symbol]                       0x08059e88   Section        0  testmain.o(.rodata.font_ubuntu_mono_24_0x54)
    font_ubuntu_mono_24_0x55                 0x08059e94   Data          12  testmain.o(.rodata.font_ubuntu_mono_24_0x55)
    [Anonymous Symbol]                       0x08059e94   Section        0  testmain.o(.rodata.font_ubuntu_mono_24_0x55)
    font_ubuntu_mono_24_0x56                 0x08059ea0   Data          12  testmain.o(.rodata.font_ubuntu_mono_24_0x56)
    [Anonymous Symbol]                       0x08059ea0   Section        0  testmain.o(.rodata.font_ubuntu_mono_24_0x56)
    font_ubuntu_mono_24_0x57                 0x08059eac   Data          12  testmain.o(.rodata.font_ubuntu_mono_24_0x57)
    [Anonymous Symbol]                       0x08059eac   Section        0  testmain.o(.rodata.font_ubuntu_mono_24_0x57)
    font_ubuntu_mono_24_0x58                 0x08059eb8   Data          12  testmain.o(.rodata.font_ubuntu_mono_24_0x58)
    [Anonymous Symbol]                       0x08059eb8   Section        0  testmain.o(.rodata.font_ubuntu_mono_24_0x58)
    font_ubuntu_mono_24_0x59                 0x08059ec4   Data          12  testmain.o(.rodata.font_ubuntu_mono_24_0x59)
    [Anonymous Symbol]                       0x08059ec4   Section        0  testmain.o(.rodata.font_ubuntu_mono_24_0x59)
    font_ubuntu_mono_24_0x5a                 0x08059ed0   Data          12  testmain.o(.rodata.font_ubuntu_mono_24_0x5a)
    [Anonymous Symbol]                       0x08059ed0   Section        0  testmain.o(.rodata.font_ubuntu_mono_24_0x5a)
    font_ubuntu_mono_24_0x5b                 0x08059edc   Data          12  testmain.o(.rodata.font_ubuntu_mono_24_0x5b)
    [Anonymous Symbol]                       0x08059edc   Section        0  testmain.o(.rodata.font_ubuntu_mono_24_0x5b)
    font_ubuntu_mono_24_0x5c                 0x08059ee8   Data          12  testmain.o(.rodata.font_ubuntu_mono_24_0x5c)
    [Anonymous Symbol]                       0x08059ee8   Section        0  testmain.o(.rodata.font_ubuntu_mono_24_0x5c)
    font_ubuntu_mono_24_0x5d                 0x08059ef4   Data          12  testmain.o(.rodata.font_ubuntu_mono_24_0x5d)
    [Anonymous Symbol]                       0x08059ef4   Section        0  testmain.o(.rodata.font_ubuntu_mono_24_0x5d)
    font_ubuntu_mono_24_0x5e                 0x08059f00   Data          12  testmain.o(.rodata.font_ubuntu_mono_24_0x5e)
    [Anonymous Symbol]                       0x08059f00   Section        0  testmain.o(.rodata.font_ubuntu_mono_24_0x5e)
    font_ubuntu_mono_24_0x5f                 0x08059f0c   Data          12  testmain.o(.rodata.font_ubuntu_mono_24_0x5f)
    [Anonymous Symbol]                       0x08059f0c   Section        0  testmain.o(.rodata.font_ubuntu_mono_24_0x5f)
    font_ubuntu_mono_24_0x60                 0x08059f18   Data          12  testmain.o(.rodata.font_ubuntu_mono_24_0x60)
    [Anonymous Symbol]                       0x08059f18   Section        0  testmain.o(.rodata.font_ubuntu_mono_24_0x60)
    font_ubuntu_mono_24_0x61                 0x08059f24   Data          12  testmain.o(.rodata.font_ubuntu_mono_24_0x61)
    [Anonymous Symbol]                       0x08059f24   Section        0  testmain.o(.rodata.font_ubuntu_mono_24_0x61)
    font_ubuntu_mono_24_0x62                 0x08059f30   Data          12  testmain.o(.rodata.font_ubuntu_mono_24_0x62)
    [Anonymous Symbol]                       0x08059f30   Section        0  testmain.o(.rodata.font_ubuntu_mono_24_0x62)
    font_ubuntu_mono_24_0x63                 0x08059f3c   Data          12  testmain.o(.rodata.font_ubuntu_mono_24_0x63)
    [Anonymous Symbol]                       0x08059f3c   Section        0  testmain.o(.rodata.font_ubuntu_mono_24_0x63)
    font_ubuntu_mono_24_0x64                 0x08059f48   Data          12  testmain.o(.rodata.font_ubuntu_mono_24_0x64)
    [Anonymous Symbol]                       0x08059f48   Section        0  testmain.o(.rodata.font_ubuntu_mono_24_0x64)
    font_ubuntu_mono_24_0x65                 0x08059f54   Data          12  testmain.o(.rodata.font_ubuntu_mono_24_0x65)
    [Anonymous Symbol]                       0x08059f54   Section        0  testmain.o(.rodata.font_ubuntu_mono_24_0x65)
    font_ubuntu_mono_24_0x66                 0x08059f60   Data          12  testmain.o(.rodata.font_ubuntu_mono_24_0x66)
    [Anonymous Symbol]                       0x08059f60   Section        0  testmain.o(.rodata.font_ubuntu_mono_24_0x66)
    font_ubuntu_mono_24_0x67                 0x08059f6c   Data          12  testmain.o(.rodata.font_ubuntu_mono_24_0x67)
    [Anonymous Symbol]                       0x08059f6c   Section        0  testmain.o(.rodata.font_ubuntu_mono_24_0x67)
    font_ubuntu_mono_24_0x68                 0x08059f78   Data          12  testmain.o(.rodata.font_ubuntu_mono_24_0x68)
    [Anonymous Symbol]                       0x08059f78   Section        0  testmain.o(.rodata.font_ubuntu_mono_24_0x68)
    font_ubuntu_mono_24_0x69                 0x08059f84   Data          12  testmain.o(.rodata.font_ubuntu_mono_24_0x69)
    [Anonymous Symbol]                       0x08059f84   Section        0  testmain.o(.rodata.font_ubuntu_mono_24_0x69)
    font_ubuntu_mono_24_0x6a                 0x08059f90   Data          12  testmain.o(.rodata.font_ubuntu_mono_24_0x6a)
    [Anonymous Symbol]                       0x08059f90   Section        0  testmain.o(.rodata.font_ubuntu_mono_24_0x6a)
    font_ubuntu_mono_24_0x6b                 0x08059f9c   Data          12  testmain.o(.rodata.font_ubuntu_mono_24_0x6b)
    [Anonymous Symbol]                       0x08059f9c   Section        0  testmain.o(.rodata.font_ubuntu_mono_24_0x6b)
    font_ubuntu_mono_24_0x6c                 0x08059fa8   Data          12  testmain.o(.rodata.font_ubuntu_mono_24_0x6c)
    [Anonymous Symbol]                       0x08059fa8   Section        0  testmain.o(.rodata.font_ubuntu_mono_24_0x6c)
    font_ubuntu_mono_24_0x6d                 0x08059fb4   Data          12  testmain.o(.rodata.font_ubuntu_mono_24_0x6d)
    [Anonymous Symbol]                       0x08059fb4   Section        0  testmain.o(.rodata.font_ubuntu_mono_24_0x6d)
    font_ubuntu_mono_24_0x6e                 0x08059fc0   Data          12  testmain.o(.rodata.font_ubuntu_mono_24_0x6e)
    [Anonymous Symbol]                       0x08059fc0   Section        0  testmain.o(.rodata.font_ubuntu_mono_24_0x6e)
    font_ubuntu_mono_24_0x6f                 0x08059fcc   Data          12  testmain.o(.rodata.font_ubuntu_mono_24_0x6f)
    [Anonymous Symbol]                       0x08059fcc   Section        0  testmain.o(.rodata.font_ubuntu_mono_24_0x6f)
    font_ubuntu_mono_24_0x70                 0x08059fd8   Data          12  testmain.o(.rodata.font_ubuntu_mono_24_0x70)
    [Anonymous Symbol]                       0x08059fd8   Section        0  testmain.o(.rodata.font_ubuntu_mono_24_0x70)
    font_ubuntu_mono_24_0x71                 0x08059fe4   Data          12  testmain.o(.rodata.font_ubuntu_mono_24_0x71)
    [Anonymous Symbol]                       0x08059fe4   Section        0  testmain.o(.rodata.font_ubuntu_mono_24_0x71)
    font_ubuntu_mono_24_0x72                 0x08059ff0   Data          12  testmain.o(.rodata.font_ubuntu_mono_24_0x72)
    [Anonymous Symbol]                       0x08059ff0   Section        0  testmain.o(.rodata.font_ubuntu_mono_24_0x72)
    font_ubuntu_mono_24_0x73                 0x08059ffc   Data          12  testmain.o(.rodata.font_ubuntu_mono_24_0x73)
    [Anonymous Symbol]                       0x08059ffc   Section        0  testmain.o(.rodata.font_ubuntu_mono_24_0x73)
    font_ubuntu_mono_24_0x74                 0x0805a008   Data          12  testmain.o(.rodata.font_ubuntu_mono_24_0x74)
    [Anonymous Symbol]                       0x0805a008   Section        0  testmain.o(.rodata.font_ubuntu_mono_24_0x74)
    font_ubuntu_mono_24_0x75                 0x0805a014   Data          12  testmain.o(.rodata.font_ubuntu_mono_24_0x75)
    [Anonymous Symbol]                       0x0805a014   Section        0  testmain.o(.rodata.font_ubuntu_mono_24_0x75)
    font_ubuntu_mono_24_0x76                 0x0805a020   Data          12  testmain.o(.rodata.font_ubuntu_mono_24_0x76)
    [Anonymous Symbol]                       0x0805a020   Section        0  testmain.o(.rodata.font_ubuntu_mono_24_0x76)
    font_ubuntu_mono_24_0x77                 0x0805a02c   Data          12  testmain.o(.rodata.font_ubuntu_mono_24_0x77)
    [Anonymous Symbol]                       0x0805a02c   Section        0  testmain.o(.rodata.font_ubuntu_mono_24_0x77)
    font_ubuntu_mono_24_0x78                 0x0805a038   Data          12  testmain.o(.rodata.font_ubuntu_mono_24_0x78)
    [Anonymous Symbol]                       0x0805a038   Section        0  testmain.o(.rodata.font_ubuntu_mono_24_0x78)
    font_ubuntu_mono_24_0x79                 0x0805a044   Data          12  testmain.o(.rodata.font_ubuntu_mono_24_0x79)
    [Anonymous Symbol]                       0x0805a044   Section        0  testmain.o(.rodata.font_ubuntu_mono_24_0x79)
    font_ubuntu_mono_24_0x7a                 0x0805a050   Data          12  testmain.o(.rodata.font_ubuntu_mono_24_0x7a)
    [Anonymous Symbol]                       0x0805a050   Section        0  testmain.o(.rodata.font_ubuntu_mono_24_0x7a)
    font_ubuntu_mono_24_0x7b                 0x0805a05c   Data          12  testmain.o(.rodata.font_ubuntu_mono_24_0x7b)
    [Anonymous Symbol]                       0x0805a05c   Section        0  testmain.o(.rodata.font_ubuntu_mono_24_0x7b)
    font_ubuntu_mono_24_0x7c                 0x0805a068   Data          12  testmain.o(.rodata.font_ubuntu_mono_24_0x7c)
    [Anonymous Symbol]                       0x0805a068   Section        0  testmain.o(.rodata.font_ubuntu_mono_24_0x7c)
    font_ubuntu_mono_24_0x7d                 0x0805a074   Data          12  testmain.o(.rodata.font_ubuntu_mono_24_0x7d)
    [Anonymous Symbol]                       0x0805a074   Section        0  testmain.o(.rodata.font_ubuntu_mono_24_0x7d)
    font_ubuntu_mono_24_0x7e                 0x0805a080   Data          12  testmain.o(.rodata.font_ubuntu_mono_24_0x7e)
    [Anonymous Symbol]                       0x0805a080   Section        0  testmain.o(.rodata.font_ubuntu_mono_24_0x7e)
    font_ubuntu_mono_24_array                0x0805a08c   Data         760  testmain.o(.rodata.font_ubuntu_mono_24_array)
    [Anonymous Symbol]                       0x0805a08c   Section        0  testmain.o(.rodata.font_ubuntu_mono_24_array)
    image_data_font_ubuntu_mono_24_0x20      0x0805a384   Data          48  testmain.o(.rodata.image_data_font_ubuntu_mono_24_0x20)
    [Anonymous Symbol]                       0x0805a384   Section        0  testmain.o(.rodata.image_data_font_ubuntu_mono_24_0x20)
    image_data_font_ubuntu_mono_24_0x21      0x0805a3b4   Data          48  testmain.o(.rodata.image_data_font_ubuntu_mono_24_0x21)
    [Anonymous Symbol]                       0x0805a3b4   Section        0  testmain.o(.rodata.image_data_font_ubuntu_mono_24_0x21)
    image_data_font_ubuntu_mono_24_0x22      0x0805a3e4   Data          48  testmain.o(.rodata.image_data_font_ubuntu_mono_24_0x22)
    [Anonymous Symbol]                       0x0805a3e4   Section        0  testmain.o(.rodata.image_data_font_ubuntu_mono_24_0x22)
    image_data_font_ubuntu_mono_24_0x23      0x0805a414   Data          48  testmain.o(.rodata.image_data_font_ubuntu_mono_24_0x23)
    [Anonymous Symbol]                       0x0805a414   Section        0  testmain.o(.rodata.image_data_font_ubuntu_mono_24_0x23)
    image_data_font_ubuntu_mono_24_0x24      0x0805a444   Data          48  testmain.o(.rodata.image_data_font_ubuntu_mono_24_0x24)
    [Anonymous Symbol]                       0x0805a444   Section        0  testmain.o(.rodata.image_data_font_ubuntu_mono_24_0x24)
    image_data_font_ubuntu_mono_24_0x25      0x0805a474   Data          48  testmain.o(.rodata.image_data_font_ubuntu_mono_24_0x25)
    [Anonymous Symbol]                       0x0805a474   Section        0  testmain.o(.rodata.image_data_font_ubuntu_mono_24_0x25)
    image_data_font_ubuntu_mono_24_0x26      0x0805a4a4   Data          48  testmain.o(.rodata.image_data_font_ubuntu_mono_24_0x26)
    [Anonymous Symbol]                       0x0805a4a4   Section        0  testmain.o(.rodata.image_data_font_ubuntu_mono_24_0x26)
    image_data_font_ubuntu_mono_24_0x27      0x0805a4d4   Data          48  testmain.o(.rodata.image_data_font_ubuntu_mono_24_0x27)
    [Anonymous Symbol]                       0x0805a4d4   Section        0  testmain.o(.rodata.image_data_font_ubuntu_mono_24_0x27)
    image_data_font_ubuntu_mono_24_0x28      0x0805a504   Data          48  testmain.o(.rodata.image_data_font_ubuntu_mono_24_0x28)
    [Anonymous Symbol]                       0x0805a504   Section        0  testmain.o(.rodata.image_data_font_ubuntu_mono_24_0x28)
    image_data_font_ubuntu_mono_24_0x29      0x0805a534   Data          48  testmain.o(.rodata.image_data_font_ubuntu_mono_24_0x29)
    [Anonymous Symbol]                       0x0805a534   Section        0  testmain.o(.rodata.image_data_font_ubuntu_mono_24_0x29)
    image_data_font_ubuntu_mono_24_0x2a      0x0805a564   Data          48  testmain.o(.rodata.image_data_font_ubuntu_mono_24_0x2a)
    [Anonymous Symbol]                       0x0805a564   Section        0  testmain.o(.rodata.image_data_font_ubuntu_mono_24_0x2a)
    image_data_font_ubuntu_mono_24_0x2b      0x0805a594   Data          48  testmain.o(.rodata.image_data_font_ubuntu_mono_24_0x2b)
    [Anonymous Symbol]                       0x0805a594   Section        0  testmain.o(.rodata.image_data_font_ubuntu_mono_24_0x2b)
    image_data_font_ubuntu_mono_24_0x2c      0x0805a5c4   Data          48  testmain.o(.rodata.image_data_font_ubuntu_mono_24_0x2c)
    [Anonymous Symbol]                       0x0805a5c4   Section        0  testmain.o(.rodata.image_data_font_ubuntu_mono_24_0x2c)
    image_data_font_ubuntu_mono_24_0x2d      0x0805a5f4   Data          48  testmain.o(.rodata.image_data_font_ubuntu_mono_24_0x2d)
    [Anonymous Symbol]                       0x0805a5f4   Section        0  testmain.o(.rodata.image_data_font_ubuntu_mono_24_0x2d)
    image_data_font_ubuntu_mono_24_0x2e      0x0805a624   Data          48  testmain.o(.rodata.image_data_font_ubuntu_mono_24_0x2e)
    [Anonymous Symbol]                       0x0805a624   Section        0  testmain.o(.rodata.image_data_font_ubuntu_mono_24_0x2e)
    image_data_font_ubuntu_mono_24_0x2f      0x0805a654   Data          48  testmain.o(.rodata.image_data_font_ubuntu_mono_24_0x2f)
    [Anonymous Symbol]                       0x0805a654   Section        0  testmain.o(.rodata.image_data_font_ubuntu_mono_24_0x2f)
    image_data_font_ubuntu_mono_24_0x30      0x0805a684   Data          48  testmain.o(.rodata.image_data_font_ubuntu_mono_24_0x30)
    [Anonymous Symbol]                       0x0805a684   Section        0  testmain.o(.rodata.image_data_font_ubuntu_mono_24_0x30)
    image_data_font_ubuntu_mono_24_0x31      0x0805a6b4   Data          48  testmain.o(.rodata.image_data_font_ubuntu_mono_24_0x31)
    [Anonymous Symbol]                       0x0805a6b4   Section        0  testmain.o(.rodata.image_data_font_ubuntu_mono_24_0x31)
    image_data_font_ubuntu_mono_24_0x32      0x0805a6e4   Data          48  testmain.o(.rodata.image_data_font_ubuntu_mono_24_0x32)
    [Anonymous Symbol]                       0x0805a6e4   Section        0  testmain.o(.rodata.image_data_font_ubuntu_mono_24_0x32)
    image_data_font_ubuntu_mono_24_0x33      0x0805a714   Data          48  testmain.o(.rodata.image_data_font_ubuntu_mono_24_0x33)
    [Anonymous Symbol]                       0x0805a714   Section        0  testmain.o(.rodata.image_data_font_ubuntu_mono_24_0x33)
    image_data_font_ubuntu_mono_24_0x34      0x0805a744   Data          48  testmain.o(.rodata.image_data_font_ubuntu_mono_24_0x34)
    [Anonymous Symbol]                       0x0805a744   Section        0  testmain.o(.rodata.image_data_font_ubuntu_mono_24_0x34)
    image_data_font_ubuntu_mono_24_0x35      0x0805a774   Data          48  testmain.o(.rodata.image_data_font_ubuntu_mono_24_0x35)
    [Anonymous Symbol]                       0x0805a774   Section        0  testmain.o(.rodata.image_data_font_ubuntu_mono_24_0x35)
    image_data_font_ubuntu_mono_24_0x36      0x0805a7a4   Data          48  testmain.o(.rodata.image_data_font_ubuntu_mono_24_0x36)
    [Anonymous Symbol]                       0x0805a7a4   Section        0  testmain.o(.rodata.image_data_font_ubuntu_mono_24_0x36)
    image_data_font_ubuntu_mono_24_0x37      0x0805a7d4   Data          48  testmain.o(.rodata.image_data_font_ubuntu_mono_24_0x37)
    [Anonymous Symbol]                       0x0805a7d4   Section        0  testmain.o(.rodata.image_data_font_ubuntu_mono_24_0x37)
    image_data_font_ubuntu_mono_24_0x38      0x0805a804   Data          48  testmain.o(.rodata.image_data_font_ubuntu_mono_24_0x38)
    [Anonymous Symbol]                       0x0805a804   Section        0  testmain.o(.rodata.image_data_font_ubuntu_mono_24_0x38)
    image_data_font_ubuntu_mono_24_0x39      0x0805a834   Data          48  testmain.o(.rodata.image_data_font_ubuntu_mono_24_0x39)
    [Anonymous Symbol]                       0x0805a834   Section        0  testmain.o(.rodata.image_data_font_ubuntu_mono_24_0x39)
    image_data_font_ubuntu_mono_24_0x3a      0x0805a864   Data          48  testmain.o(.rodata.image_data_font_ubuntu_mono_24_0x3a)
    [Anonymous Symbol]                       0x0805a864   Section        0  testmain.o(.rodata.image_data_font_ubuntu_mono_24_0x3a)
    image_data_font_ubuntu_mono_24_0x3b      0x0805a894   Data          48  testmain.o(.rodata.image_data_font_ubuntu_mono_24_0x3b)
    [Anonymous Symbol]                       0x0805a894   Section        0  testmain.o(.rodata.image_data_font_ubuntu_mono_24_0x3b)
    image_data_font_ubuntu_mono_24_0x3c      0x0805a8c4   Data          48  testmain.o(.rodata.image_data_font_ubuntu_mono_24_0x3c)
    [Anonymous Symbol]                       0x0805a8c4   Section        0  testmain.o(.rodata.image_data_font_ubuntu_mono_24_0x3c)
    image_data_font_ubuntu_mono_24_0x3d      0x0805a8f4   Data          48  testmain.o(.rodata.image_data_font_ubuntu_mono_24_0x3d)
    [Anonymous Symbol]                       0x0805a8f4   Section        0  testmain.o(.rodata.image_data_font_ubuntu_mono_24_0x3d)
    image_data_font_ubuntu_mono_24_0x3e      0x0805a924   Data          48  testmain.o(.rodata.image_data_font_ubuntu_mono_24_0x3e)
    [Anonymous Symbol]                       0x0805a924   Section        0  testmain.o(.rodata.image_data_font_ubuntu_mono_24_0x3e)
    image_data_font_ubuntu_mono_24_0x3f      0x0805a954   Data          48  testmain.o(.rodata.image_data_font_ubuntu_mono_24_0x3f)
    [Anonymous Symbol]                       0x0805a954   Section        0  testmain.o(.rodata.image_data_font_ubuntu_mono_24_0x3f)
    image_data_font_ubuntu_mono_24_0x40      0x0805a984   Data          48  testmain.o(.rodata.image_data_font_ubuntu_mono_24_0x40)
    [Anonymous Symbol]                       0x0805a984   Section        0  testmain.o(.rodata.image_data_font_ubuntu_mono_24_0x40)
    image_data_font_ubuntu_mono_24_0x41      0x0805a9b4   Data          48  testmain.o(.rodata.image_data_font_ubuntu_mono_24_0x41)
    [Anonymous Symbol]                       0x0805a9b4   Section        0  testmain.o(.rodata.image_data_font_ubuntu_mono_24_0x41)
    image_data_font_ubuntu_mono_24_0x42      0x0805a9e4   Data          48  testmain.o(.rodata.image_data_font_ubuntu_mono_24_0x42)
    [Anonymous Symbol]                       0x0805a9e4   Section        0  testmain.o(.rodata.image_data_font_ubuntu_mono_24_0x42)
    image_data_font_ubuntu_mono_24_0x43      0x0805aa14   Data          48  testmain.o(.rodata.image_data_font_ubuntu_mono_24_0x43)
    [Anonymous Symbol]                       0x0805aa14   Section        0  testmain.o(.rodata.image_data_font_ubuntu_mono_24_0x43)
    image_data_font_ubuntu_mono_24_0x44      0x0805aa44   Data          48  testmain.o(.rodata.image_data_font_ubuntu_mono_24_0x44)
    [Anonymous Symbol]                       0x0805aa44   Section        0  testmain.o(.rodata.image_data_font_ubuntu_mono_24_0x44)
    image_data_font_ubuntu_mono_24_0x45      0x0805aa74   Data          48  testmain.o(.rodata.image_data_font_ubuntu_mono_24_0x45)
    [Anonymous Symbol]                       0x0805aa74   Section        0  testmain.o(.rodata.image_data_font_ubuntu_mono_24_0x45)
    image_data_font_ubuntu_mono_24_0x46      0x0805aaa4   Data          48  testmain.o(.rodata.image_data_font_ubuntu_mono_24_0x46)
    [Anonymous Symbol]                       0x0805aaa4   Section        0  testmain.o(.rodata.image_data_font_ubuntu_mono_24_0x46)
    image_data_font_ubuntu_mono_24_0x47      0x0805aad4   Data          48  testmain.o(.rodata.image_data_font_ubuntu_mono_24_0x47)
    [Anonymous Symbol]                       0x0805aad4   Section        0  testmain.o(.rodata.image_data_font_ubuntu_mono_24_0x47)
    image_data_font_ubuntu_mono_24_0x48      0x0805ab04   Data          48  testmain.o(.rodata.image_data_font_ubuntu_mono_24_0x48)
    [Anonymous Symbol]                       0x0805ab04   Section        0  testmain.o(.rodata.image_data_font_ubuntu_mono_24_0x48)
    image_data_font_ubuntu_mono_24_0x49      0x0805ab34   Data          48  testmain.o(.rodata.image_data_font_ubuntu_mono_24_0x49)
    [Anonymous Symbol]                       0x0805ab34   Section        0  testmain.o(.rodata.image_data_font_ubuntu_mono_24_0x49)
    image_data_font_ubuntu_mono_24_0x4a      0x0805ab64   Data          48  testmain.o(.rodata.image_data_font_ubuntu_mono_24_0x4a)
    [Anonymous Symbol]                       0x0805ab64   Section        0  testmain.o(.rodata.image_data_font_ubuntu_mono_24_0x4a)
    image_data_font_ubuntu_mono_24_0x4b      0x0805ab94   Data          48  testmain.o(.rodata.image_data_font_ubuntu_mono_24_0x4b)
    [Anonymous Symbol]                       0x0805ab94   Section        0  testmain.o(.rodata.image_data_font_ubuntu_mono_24_0x4b)
    image_data_font_ubuntu_mono_24_0x4c      0x0805abc4   Data          48  testmain.o(.rodata.image_data_font_ubuntu_mono_24_0x4c)
    [Anonymous Symbol]                       0x0805abc4   Section        0  testmain.o(.rodata.image_data_font_ubuntu_mono_24_0x4c)
    image_data_font_ubuntu_mono_24_0x4d      0x0805abf4   Data          48  testmain.o(.rodata.image_data_font_ubuntu_mono_24_0x4d)
    [Anonymous Symbol]                       0x0805abf4   Section        0  testmain.o(.rodata.image_data_font_ubuntu_mono_24_0x4d)
    image_data_font_ubuntu_mono_24_0x4e      0x0805ac24   Data          48  testmain.o(.rodata.image_data_font_ubuntu_mono_24_0x4e)
    [Anonymous Symbol]                       0x0805ac24   Section        0  testmain.o(.rodata.image_data_font_ubuntu_mono_24_0x4e)
    image_data_font_ubuntu_mono_24_0x4f      0x0805ac54   Data          48  testmain.o(.rodata.image_data_font_ubuntu_mono_24_0x4f)
    [Anonymous Symbol]                       0x0805ac54   Section        0  testmain.o(.rodata.image_data_font_ubuntu_mono_24_0x4f)
    image_data_font_ubuntu_mono_24_0x50      0x0805ac84   Data          48  testmain.o(.rodata.image_data_font_ubuntu_mono_24_0x50)
    [Anonymous Symbol]                       0x0805ac84   Section        0  testmain.o(.rodata.image_data_font_ubuntu_mono_24_0x50)
    image_data_font_ubuntu_mono_24_0x51      0x0805acb4   Data          48  testmain.o(.rodata.image_data_font_ubuntu_mono_24_0x51)
    [Anonymous Symbol]                       0x0805acb4   Section        0  testmain.o(.rodata.image_data_font_ubuntu_mono_24_0x51)
    image_data_font_ubuntu_mono_24_0x52      0x0805ace4   Data          48  testmain.o(.rodata.image_data_font_ubuntu_mono_24_0x52)
    [Anonymous Symbol]                       0x0805ace4   Section        0  testmain.o(.rodata.image_data_font_ubuntu_mono_24_0x52)
    image_data_font_ubuntu_mono_24_0x53      0x0805ad14   Data          48  testmain.o(.rodata.image_data_font_ubuntu_mono_24_0x53)
    [Anonymous Symbol]                       0x0805ad14   Section        0  testmain.o(.rodata.image_data_font_ubuntu_mono_24_0x53)
    image_data_font_ubuntu_mono_24_0x54      0x0805ad44   Data          48  testmain.o(.rodata.image_data_font_ubuntu_mono_24_0x54)
    [Anonymous Symbol]                       0x0805ad44   Section        0  testmain.o(.rodata.image_data_font_ubuntu_mono_24_0x54)
    image_data_font_ubuntu_mono_24_0x55      0x0805ad74   Data          48  testmain.o(.rodata.image_data_font_ubuntu_mono_24_0x55)
    [Anonymous Symbol]                       0x0805ad74   Section        0  testmain.o(.rodata.image_data_font_ubuntu_mono_24_0x55)
    image_data_font_ubuntu_mono_24_0x56      0x0805ada4   Data          48  testmain.o(.rodata.image_data_font_ubuntu_mono_24_0x56)
    [Anonymous Symbol]                       0x0805ada4   Section        0  testmain.o(.rodata.image_data_font_ubuntu_mono_24_0x56)
    image_data_font_ubuntu_mono_24_0x57      0x0805add4   Data          48  testmain.o(.rodata.image_data_font_ubuntu_mono_24_0x57)
    [Anonymous Symbol]                       0x0805add4   Section        0  testmain.o(.rodata.image_data_font_ubuntu_mono_24_0x57)
    image_data_font_ubuntu_mono_24_0x58      0x0805ae04   Data          48  testmain.o(.rodata.image_data_font_ubuntu_mono_24_0x58)
    [Anonymous Symbol]                       0x0805ae04   Section        0  testmain.o(.rodata.image_data_font_ubuntu_mono_24_0x58)
    image_data_font_ubuntu_mono_24_0x59      0x0805ae34   Data          48  testmain.o(.rodata.image_data_font_ubuntu_mono_24_0x59)
    [Anonymous Symbol]                       0x0805ae34   Section        0  testmain.o(.rodata.image_data_font_ubuntu_mono_24_0x59)
    image_data_font_ubuntu_mono_24_0x5a      0x0805ae64   Data          48  testmain.o(.rodata.image_data_font_ubuntu_mono_24_0x5a)
    [Anonymous Symbol]                       0x0805ae64   Section        0  testmain.o(.rodata.image_data_font_ubuntu_mono_24_0x5a)
    image_data_font_ubuntu_mono_24_0x5b      0x0805ae94   Data          48  testmain.o(.rodata.image_data_font_ubuntu_mono_24_0x5b)
    [Anonymous Symbol]                       0x0805ae94   Section        0  testmain.o(.rodata.image_data_font_ubuntu_mono_24_0x5b)
    image_data_font_ubuntu_mono_24_0x5c      0x0805aec4   Data          48  testmain.o(.rodata.image_data_font_ubuntu_mono_24_0x5c)
    [Anonymous Symbol]                       0x0805aec4   Section        0  testmain.o(.rodata.image_data_font_ubuntu_mono_24_0x5c)
    image_data_font_ubuntu_mono_24_0x5d      0x0805aef4   Data          48  testmain.o(.rodata.image_data_font_ubuntu_mono_24_0x5d)
    [Anonymous Symbol]                       0x0805aef4   Section        0  testmain.o(.rodata.image_data_font_ubuntu_mono_24_0x5d)
    image_data_font_ubuntu_mono_24_0x5e      0x0805af24   Data          48  testmain.o(.rodata.image_data_font_ubuntu_mono_24_0x5e)
    [Anonymous Symbol]                       0x0805af24   Section        0  testmain.o(.rodata.image_data_font_ubuntu_mono_24_0x5e)
    image_data_font_ubuntu_mono_24_0x5f      0x0805af54   Data          48  testmain.o(.rodata.image_data_font_ubuntu_mono_24_0x5f)
    [Anonymous Symbol]                       0x0805af54   Section        0  testmain.o(.rodata.image_data_font_ubuntu_mono_24_0x5f)
    image_data_font_ubuntu_mono_24_0x60      0x0805af84   Data          48  testmain.o(.rodata.image_data_font_ubuntu_mono_24_0x60)
    [Anonymous Symbol]                       0x0805af84   Section        0  testmain.o(.rodata.image_data_font_ubuntu_mono_24_0x60)
    image_data_font_ubuntu_mono_24_0x61      0x0805afb4   Data          48  testmain.o(.rodata.image_data_font_ubuntu_mono_24_0x61)
    [Anonymous Symbol]                       0x0805afb4   Section        0  testmain.o(.rodata.image_data_font_ubuntu_mono_24_0x61)
    image_data_font_ubuntu_mono_24_0x62      0x0805afe4   Data          48  testmain.o(.rodata.image_data_font_ubuntu_mono_24_0x62)
    [Anonymous Symbol]                       0x0805afe4   Section        0  testmain.o(.rodata.image_data_font_ubuntu_mono_24_0x62)
    image_data_font_ubuntu_mono_24_0x63      0x0805b014   Data          48  testmain.o(.rodata.image_data_font_ubuntu_mono_24_0x63)
    [Anonymous Symbol]                       0x0805b014   Section        0  testmain.o(.rodata.image_data_font_ubuntu_mono_24_0x63)
    image_data_font_ubuntu_mono_24_0x64      0x0805b044   Data          48  testmain.o(.rodata.image_data_font_ubuntu_mono_24_0x64)
    [Anonymous Symbol]                       0x0805b044   Section        0  testmain.o(.rodata.image_data_font_ubuntu_mono_24_0x64)
    image_data_font_ubuntu_mono_24_0x65      0x0805b074   Data          48  testmain.o(.rodata.image_data_font_ubuntu_mono_24_0x65)
    [Anonymous Symbol]                       0x0805b074   Section        0  testmain.o(.rodata.image_data_font_ubuntu_mono_24_0x65)
    image_data_font_ubuntu_mono_24_0x66      0x0805b0a4   Data          48  testmain.o(.rodata.image_data_font_ubuntu_mono_24_0x66)
    [Anonymous Symbol]                       0x0805b0a4   Section        0  testmain.o(.rodata.image_data_font_ubuntu_mono_24_0x66)
    image_data_font_ubuntu_mono_24_0x67      0x0805b0d4   Data          48  testmain.o(.rodata.image_data_font_ubuntu_mono_24_0x67)
    [Anonymous Symbol]                       0x0805b0d4   Section        0  testmain.o(.rodata.image_data_font_ubuntu_mono_24_0x67)
    image_data_font_ubuntu_mono_24_0x68      0x0805b104   Data          48  testmain.o(.rodata.image_data_font_ubuntu_mono_24_0x68)
    [Anonymous Symbol]                       0x0805b104   Section        0  testmain.o(.rodata.image_data_font_ubuntu_mono_24_0x68)
    image_data_font_ubuntu_mono_24_0x69      0x0805b134   Data          48  testmain.o(.rodata.image_data_font_ubuntu_mono_24_0x69)
    [Anonymous Symbol]                       0x0805b134   Section        0  testmain.o(.rodata.image_data_font_ubuntu_mono_24_0x69)
    image_data_font_ubuntu_mono_24_0x6a      0x0805b164   Data          48  testmain.o(.rodata.image_data_font_ubuntu_mono_24_0x6a)
    [Anonymous Symbol]                       0x0805b164   Section        0  testmain.o(.rodata.image_data_font_ubuntu_mono_24_0x6a)
    image_data_font_ubuntu_mono_24_0x6b      0x0805b194   Data          48  testmain.o(.rodata.image_data_font_ubuntu_mono_24_0x6b)
    [Anonymous Symbol]                       0x0805b194   Section        0  testmain.o(.rodata.image_data_font_ubuntu_mono_24_0x6b)
    image_data_font_ubuntu_mono_24_0x6c      0x0805b1c4   Data          48  testmain.o(.rodata.image_data_font_ubuntu_mono_24_0x6c)
    [Anonymous Symbol]                       0x0805b1c4   Section        0  testmain.o(.rodata.image_data_font_ubuntu_mono_24_0x6c)
    image_data_font_ubuntu_mono_24_0x6d      0x0805b1f4   Data          48  testmain.o(.rodata.image_data_font_ubuntu_mono_24_0x6d)
    [Anonymous Symbol]                       0x0805b1f4   Section        0  testmain.o(.rodata.image_data_font_ubuntu_mono_24_0x6d)
    image_data_font_ubuntu_mono_24_0x6e      0x0805b224   Data          48  testmain.o(.rodata.image_data_font_ubuntu_mono_24_0x6e)
    [Anonymous Symbol]                       0x0805b224   Section        0  testmain.o(.rodata.image_data_font_ubuntu_mono_24_0x6e)
    image_data_font_ubuntu_mono_24_0x6f      0x0805b254   Data          48  testmain.o(.rodata.image_data_font_ubuntu_mono_24_0x6f)
    [Anonymous Symbol]                       0x0805b254   Section        0  testmain.o(.rodata.image_data_font_ubuntu_mono_24_0x6f)
    image_data_font_ubuntu_mono_24_0x70      0x0805b284   Data          48  testmain.o(.rodata.image_data_font_ubuntu_mono_24_0x70)
    [Anonymous Symbol]                       0x0805b284   Section        0  testmain.o(.rodata.image_data_font_ubuntu_mono_24_0x70)
    image_data_font_ubuntu_mono_24_0x71      0x0805b2b4   Data          48  testmain.o(.rodata.image_data_font_ubuntu_mono_24_0x71)
    [Anonymous Symbol]                       0x0805b2b4   Section        0  testmain.o(.rodata.image_data_font_ubuntu_mono_24_0x71)
    image_data_font_ubuntu_mono_24_0x72      0x0805b2e4   Data          48  testmain.o(.rodata.image_data_font_ubuntu_mono_24_0x72)
    [Anonymous Symbol]                       0x0805b2e4   Section        0  testmain.o(.rodata.image_data_font_ubuntu_mono_24_0x72)
    image_data_font_ubuntu_mono_24_0x73      0x0805b314   Data          48  testmain.o(.rodata.image_data_font_ubuntu_mono_24_0x73)
    [Anonymous Symbol]                       0x0805b314   Section        0  testmain.o(.rodata.image_data_font_ubuntu_mono_24_0x73)
    image_data_font_ubuntu_mono_24_0x74      0x0805b344   Data          48  testmain.o(.rodata.image_data_font_ubuntu_mono_24_0x74)
    [Anonymous Symbol]                       0x0805b344   Section        0  testmain.o(.rodata.image_data_font_ubuntu_mono_24_0x74)
    image_data_font_ubuntu_mono_24_0x75      0x0805b374   Data          48  testmain.o(.rodata.image_data_font_ubuntu_mono_24_0x75)
    [Anonymous Symbol]                       0x0805b374   Section        0  testmain.o(.rodata.image_data_font_ubuntu_mono_24_0x75)
    image_data_font_ubuntu_mono_24_0x76      0x0805b3a4   Data          48  testmain.o(.rodata.image_data_font_ubuntu_mono_24_0x76)
    [Anonymous Symbol]                       0x0805b3a4   Section        0  testmain.o(.rodata.image_data_font_ubuntu_mono_24_0x76)
    image_data_font_ubuntu_mono_24_0x77      0x0805b3d4   Data          48  testmain.o(.rodata.image_data_font_ubuntu_mono_24_0x77)
    [Anonymous Symbol]                       0x0805b3d4   Section        0  testmain.o(.rodata.image_data_font_ubuntu_mono_24_0x77)
    image_data_font_ubuntu_mono_24_0x78      0x0805b404   Data          48  testmain.o(.rodata.image_data_font_ubuntu_mono_24_0x78)
    [Anonymous Symbol]                       0x0805b404   Section        0  testmain.o(.rodata.image_data_font_ubuntu_mono_24_0x78)
    image_data_font_ubuntu_mono_24_0x79      0x0805b434   Data          48  testmain.o(.rodata.image_data_font_ubuntu_mono_24_0x79)
    [Anonymous Symbol]                       0x0805b434   Section        0  testmain.o(.rodata.image_data_font_ubuntu_mono_24_0x79)
    image_data_font_ubuntu_mono_24_0x7a      0x0805b464   Data          48  testmain.o(.rodata.image_data_font_ubuntu_mono_24_0x7a)
    [Anonymous Symbol]                       0x0805b464   Section        0  testmain.o(.rodata.image_data_font_ubuntu_mono_24_0x7a)
    image_data_font_ubuntu_mono_24_0x7b      0x0805b494   Data          48  testmain.o(.rodata.image_data_font_ubuntu_mono_24_0x7b)
    [Anonymous Symbol]                       0x0805b494   Section        0  testmain.o(.rodata.image_data_font_ubuntu_mono_24_0x7b)
    image_data_font_ubuntu_mono_24_0x7c      0x0805b4c4   Data          48  testmain.o(.rodata.image_data_font_ubuntu_mono_24_0x7c)
    [Anonymous Symbol]                       0x0805b4c4   Section        0  testmain.o(.rodata.image_data_font_ubuntu_mono_24_0x7c)
    image_data_font_ubuntu_mono_24_0x7d      0x0805b4f4   Data          48  testmain.o(.rodata.image_data_font_ubuntu_mono_24_0x7d)
    [Anonymous Symbol]                       0x0805b4f4   Section        0  testmain.o(.rodata.image_data_font_ubuntu_mono_24_0x7d)
    image_data_font_ubuntu_mono_24_0x7e      0x0805b524   Data          48  testmain.o(.rodata.image_data_font_ubuntu_mono_24_0x7e)
    [Anonymous Symbol]                       0x0805b524   Section        0  testmain.o(.rodata.image_data_font_ubuntu_mono_24_0x7e)
    .L.str.5                                 0x0805b554   Data           2  testmain.o(.rodata.str1.1)
    [Anonymous Symbol]                       0x0805b554   Section        0  testmain.o(.rodata.str1.1)
    .L.str.12                                0x0805b556   Data           2  testmain.o(.rodata.str1.1)
    .L.str.15                                0x0805b558   Data          18  testmain.o(.rodata.str1.1)
    .L.str.6                                 0x0805b56a   Data          12  testmain.o(.rodata.str1.1)
    .L.str.9                                 0x0805b576   Data          10  testmain.o(.rodata.str1.1)
    .L.str.7                                 0x0805b580   Data          12  testmain.o(.rodata.str1.1)
    .L.str.10                                0x0805b58c   Data          11  testmain.o(.rodata.str1.1)
    .L.str.4                                 0x0805b597   Data          11  testmain.o(.rodata.str1.1)
    .L.str.3                                 0x0805b5a2   Data           6  testmain.o(.rodata.str1.1)
    .L.str.11                                0x0805b5a8   Data          10  testmain.o(.rodata.str1.1)
    .L.str.8                                 0x0805b5b2   Data          10  testmain.o(.rodata.str1.1)
    .L.str.2                                 0x0805b5bc   Data          10  testmain.o(.rodata.str1.1)
    .L.str.16                                0x0805b5c6   Data          15  testmain.o(.rodata.str1.1)
    .L.str.13                                0x0805b5d5   Data          17  testmain.o(.rodata.str1.1)
    .L.str.14                                0x0805b5e6   Data          18  testmain.o(.rodata.str1.1)
    .L.str                                   0x0805b5f8   Data           7  testmain.o(.rodata.str1.1)
    .L.str.1                                 0x0805b5ff   Data           6  testmain.o(.rodata.str1.1)
    .L.str.17                                0x0805b605   Data           4  testmain.o(.rodata.str1.1)
    .L.str                                   0x0805b609   Data          10  adc.o(.rodata.str1.1)
    [Anonymous Symbol]                       0x0805b609   Section        0  adc.o(.rodata.str1.1)
    .L.str.1                                 0x0805b613   Data          11  adc.o(.rodata.str1.1)
    .L.str                                   0x0805b61e   Data           7  retarget_io.o(.rodata.str1.1)
    [Anonymous Symbol]                       0x0805b61e   Section        0  retarget_io.o(.rodata.str1.1)
    .L.str.2                                 0x0805b625   Data           8  retarget_io.o(.rodata.str1.1)
    .L.str.1                                 0x0805b62d   Data           8  retarget_io.o(.rodata.str1.1)
    locale$$data                             0x0805b658   Section       28  lc_numeric_c.o(locale$$data)
    __lcnum_c_name                           0x0805b65c   Data           2  lc_numeric_c.o(locale$$data)
    __lcnum_c_start                          0x0805b664   Data           0  lc_numeric_c.o(locale$$data)
    __lcnum_c_point                          0x0805b670   Data           0  lc_numeric_c.o(locale$$data)
    __lcnum_c_thousands                      0x0805b672   Data           0  lc_numeric_c.o(locale$$data)
    __lcnum_c_grouping                       0x0805b673   Data           0  lc_numeric_c.o(locale$$data)
    __lcnum_c_end                            0x0805b674   Data           0  lc_numeric_c.o(locale$$data)
    locale$$data                             0x0805b674   Section      272  lc_ctype_c.o(locale$$data)
    __lcctype_c_name                         0x0805b678   Data           2  lc_ctype_c.o(locale$$data)
    __lcctype_c_start                        0x0805b680   Data           0  lc_ctype_c.o(locale$$data)
    __lcctype_c_end                          0x0805b784   Data           0  lc_ctype_c.o(locale$$data)
    .data                                    0x20000000   Section        4  stdio_streams.o(.data)
    .data                                    0x20000004   Section        4  stdio_streams.o(.data)
    .data                                    0x20000008   Section        4  stdio_streams.o(.data)
    ILI_TFTheight                            0x2000000e   Data           2  ili9341.o(.data.ILI_TFTheight)
    [Anonymous Symbol]                       0x2000000e   Section        0  ili9341.o(.data.ILI_TFTheight)
    ILI_TFTwidth                             0x20000010   Data           2  ili9341.o(.data.ILI_TFTwidth)
    [Anonymous Symbol]                       0x20000010   Section        0  ili9341.o(.data.ILI_TFTwidth)
    .bss                                     0x20000070   Section      228  rand.o(.bss)
    .bss                                     0x20000154   Section       84  stdio_streams.o(.bss)
    .bss                                     0x200001a8   Section       84  stdio_streams.o(.bss)
    .bss                                     0x200001fc   Section       84  stdio_streams.o(.bss)
    .bss                                     0x20000250   Section       96  libspace.o(.bss)
    ILI_Orientation                          0x200002b2   Data           1  ili9341.o(.bss.ILI_Orientation)
    [Anonymous Symbol]                       0x200002b2   Section        0  ili9341.o(.bss.ILI_Orientation)
    current                                  0x200002d0   Data           4  sonar.o(.bss.current)
    [Anonymous Symbol]                       0x200002d0   Section        0  sonar.o(.bss.current)
    last                                     0x200002dc   Data           4  sonar.o(.bss.last)
    [Anonymous Symbol]                       0x200002dc   Section        0  sonar.o(.bss.last)
    period                                   0x200002f8   Data           8  sonar.o(.bss.period)
    [Anonymous Symbol]                       0x200002f8   Section        0  sonar.o(.bss.period)
    servo                                    0x2000030d   Data           1  servo.o(.bss.servo)
    [Anonymous Symbol]                       0x2000030d   Section        0  servo.o(.bss.servo)
    Heap_Mem                                 0x20000328   Data         512  startup_stm32f446xx.o(HEAP)
    HEAP                                     0x20000328   Section      512  startup_stm32f446xx.o(HEAP)
    Stack_Mem                                0x20000528   Data        1024  startup_stm32f446xx.o(STACK)
    STACK                                    0x20000528   Section     1024  startup_stm32f446xx.o(STACK)
    __initial_sp                             0x20000928   Data           0  startup_stm32f446xx.o(STACK)

    Global Symbols

    Symbol Name                              Value     Ov Type        Size  Object(Section)

    BuildAttributes$$THM_ISAv4$E$P$D$K$B$S$7EM$VFPi3$EXTD16$VFPS$VFMA$PE$A:L22UL41UL21$X:L11$S22US41US21$IEEE1$IW$~IW$USESV6$~STKCKD$USESV7$~SHL$OTIME$ROPI$IEEEJ$EBA8$UX$STANDARDLIB$REQ8$PRES8$EABIv2 0x00000000   Number         0  anon$$obj.o ABSOLUTE
    _printf_flags                            0x00000000   Number         0  printf_stubs.o ABSOLUTE
    _printf_return_value                     0x00000000   Number         0  printf_stubs.o ABSOLUTE
    _printf_sizespec                         0x00000000   Number         0  printf_stubs.o ABSOLUTE
    _printf_widthprec                        0x00000000   Number         0  printf_stubs.o ABSOLUTE
    __ARM_exceptions_init                     - Undefined Weak Reference
    __alloca_initialize                       - Undefined Weak Reference
    __arm_preinit_                            - Undefined Weak Reference
    __arm_relocate_pie_                       - Undefined Weak Reference
    __cpp_initialize__aeabi_                  - Undefined Weak Reference
    __cxa_finalize                            - Undefined Weak Reference
    __sigvec_lookup                           - Undefined Weak Reference
    __user_heap_extent                        - Undefined Weak Reference
    _atexit_init                              - Undefined Weak Reference
    _call_atexit_fns                          - Undefined Weak Reference
    _clock_init                               - Undefined Weak Reference
    _fp_trap_init                             - Undefined Weak Reference
    _fp_trap_shutdown                         - Undefined Weak Reference
    _get_lc_collate                           - Undefined Weak Reference
    _get_lc_monetary                          - Undefined Weak Reference
    _get_lc_time                              - Undefined Weak Reference
    _getenv_init                              - Undefined Weak Reference
    _handle_redirection                       - Undefined Weak Reference
    _mutex_acquire                            - Undefined Weak Reference
    _mutex_free                               - Undefined Weak Reference
    _mutex_release                            - Undefined Weak Reference
    _printf_mbtowc                            - Undefined Weak Reference
    _printf_wc                                - Undefined Weak Reference
    _signal_finish                            - Undefined Weak Reference
    _signal_init                              - Undefined Weak Reference
    __Vectors_Size                           0x000001c4   Number         0  startup_stm32f446xx.o ABSOLUTE
    __Vectors                                0x08000000   Data           4  startup_stm32f446xx.o(RESET)
    __Vectors_End                            0x080001c4   Data           0  startup_stm32f446xx.o(RESET)
    __main                                   0x080001c5   Thumb Code     8  __main.o(!!!main)
    __scatterload                            0x080001cd   Thumb Code     0  __scatter.o(!!!scatter)
    __scatterload_rt2                        0x080001cd   Thumb Code    44  __scatter.o(!!!scatter)
    __scatterload_rt2_thumb_only             0x080001cd   Thumb Code     0  __scatter.o(!!!scatter)
    __scatterload_null                       0x080001db   Thumb Code     0  __scatter.o(!!!scatter)
    __scatterload_copy                       0x08000201   Thumb Code    26  __scatter_copy.o(!!handler_copy)
    __scatterload_zeroinit                   0x0800021d   Thumb Code    28  __scatter_zi.o(!!handler_zi)
    _printf_n                                0x08000239   Thumb Code     0  _printf_n.o(.ARM.Collect$$_printf_percent$$00000001)
    _printf_percent                          0x08000239   Thumb Code     0  _printf_percent.o(.ARM.Collect$$_printf_percent$$00000000)
    _printf_p                                0x0800023f   Thumb Code     0  _printf_p.o(.ARM.Collect$$_printf_percent$$00000002)
    _printf_f                                0x08000245   Thumb Code     0  _printf_f.o(.ARM.Collect$$_printf_percent$$00000003)
    _printf_e                                0x0800024b   Thumb Code     0  _printf_e.o(.ARM.Collect$$_printf_percent$$00000004)
    _printf_g                                0x08000251   Thumb Code     0  _printf_g.o(.ARM.Collect$$_printf_percent$$00000005)
    _printf_a                                0x08000257   Thumb Code     0  _printf_a.o(.ARM.Collect$$_printf_percent$$00000006)
    _printf_ll                               0x0800025d   Thumb Code     0  _printf_ll.o(.ARM.Collect$$_printf_percent$$00000007)
    _printf_i                                0x08000267   Thumb Code     0  _printf_i.o(.ARM.Collect$$_printf_percent$$00000008)
    _printf_d                                0x0800026d   Thumb Code     0  _printf_d.o(.ARM.Collect$$_printf_percent$$00000009)
    _printf_u                                0x08000273   Thumb Code     0  _printf_u.o(.ARM.Collect$$_printf_percent$$0000000A)
    _printf_o                                0x08000279   Thumb Code     0  _printf_o.o(.ARM.Collect$$_printf_percent$$0000000B)
    _printf_x                                0x0800027f   Thumb Code     0  _printf_x.o(.ARM.Collect$$_printf_percent$$0000000C)
    _printf_lli                              0x08000285   Thumb Code     0  _printf_lli.o(.ARM.Collect$$_printf_percent$$0000000D)
    _printf_lld                              0x0800028b   Thumb Code     0  _printf_lld.o(.ARM.Collect$$_printf_percent$$0000000E)
    _printf_llu                              0x08000291   Thumb Code     0  _printf_llu.o(.ARM.Collect$$_printf_percent$$0000000F)
    _printf_llo                              0x08000297   Thumb Code     0  _printf_llo.o(.ARM.Collect$$_printf_percent$$00000010)
    _printf_llx                              0x0800029d   Thumb Code     0  _printf_llx.o(.ARM.Collect$$_printf_percent$$00000011)
    _printf_l                                0x080002a3   Thumb Code     0  _printf_l.o(.ARM.Collect$$_printf_percent$$00000012)
    _printf_c                                0x080002ad   Thumb Code     0  _printf_c.o(.ARM.Collect$$_printf_percent$$00000013)
    _printf_s                                0x080002b3   Thumb Code     0  _printf_s.o(.ARM.Collect$$_printf_percent$$00000014)
    _printf_lc                               0x080002b9   Thumb Code     0  _printf_lc.o(.ARM.Collect$$_printf_percent$$00000015)
    _printf_ls                               0x080002bf   Thumb Code     0  _printf_ls.o(.ARM.Collect$$_printf_percent$$00000016)
    _printf_percent_end                      0x080002c5   Thumb Code     0  _printf_percent_end.o(.ARM.Collect$$_printf_percent$$00000017)
    __rt_lib_init                            0x080002c9   Thumb Code     0  libinit.o(.ARM.Collect$$libinit$$00000000)
    __rt_lib_init_fp_1                       0x080002cb   Thumb Code     0  libinit2.o(.ARM.Collect$$libinit$$00000001)
    __rt_lib_init_heap_2                     0x080002cf   Thumb Code     0  libinit2.o(.ARM.Collect$$libinit$$00000007)
    __rt_lib_init_preinit_1                  0x080002cf   Thumb Code     0  libinit2.o(.ARM.Collect$$libinit$$00000006)
    __rt_lib_init_relocate_pie_1             0x080002cf   Thumb Code     0  libinit2.o(.ARM.Collect$$libinit$$00000004)
    __rt_lib_init_heap_1                     0x080002d7   Thumb Code     0  libinit2.o(.ARM.Collect$$libinit$$0000000C)
    __rt_lib_init_rand_2                     0x080002d7   Thumb Code     0  libinit2.o(.ARM.Collect$$libinit$$0000000F)
    __rt_lib_init_user_alloc_1               0x080002d7   Thumb Code     0  libinit2.o(.ARM.Collect$$libinit$$0000000E)
    __rt_lib_init_lc_common                  0x080002db   Thumb Code     0  libinit2.o(.ARM.Collect$$libinit$$00000011)
    __rt_lib_init_rand_1                     0x080002db   Thumb Code     0  libinit2.o(.ARM.Collect$$libinit$$00000010)
    __rt_lib_init_lc_collate_1               0x080002e1   Thumb Code     0  libinit2.o(.ARM.Collect$$libinit$$00000013)
    __rt_lib_init_lc_ctype_2                 0x080002e1   Thumb Code     0  libinit2.o(.ARM.Collect$$libinit$$00000014)
    __rt_lib_init_lc_ctype_1                 0x080002ed   Thumb Code     0  libinit2.o(.ARM.Collect$$libinit$$00000015)
    __rt_lib_init_lc_monetary_1              0x080002ed   Thumb Code     0  libinit2.o(.ARM.Collect$$libinit$$00000017)
    __rt_lib_init_lc_numeric_2               0x080002ed   Thumb Code     0  libinit2.o(.ARM.Collect$$libinit$$00000018)
    __rt_lib_init_atexit_1                   0x080002f7   Thumb Code     0  libinit2.o(.ARM.Collect$$libinit$$0000001D)
    __rt_lib_init_clock_1                    0x080002f7   Thumb Code     0  libinit2.o(.ARM.Collect$$libinit$$00000023)
    __rt_lib_init_fp_trap_1                  0x080002f7   Thumb Code     0  libinit2.o(.ARM.Collect$$libinit$$00000021)
    __rt_lib_init_getenv_1                   0x080002f7   Thumb Code     0  libinit2.o(.ARM.Collect$$libinit$$00000025)
    __rt_lib_init_lc_numeric_1               0x080002f7   Thumb Code     0  libinit2.o(.ARM.Collect$$libinit$$00000019)
    __rt_lib_init_lc_time_1                  0x080002f7   Thumb Code     0  libinit2.o(.ARM.Collect$$libinit$$0000001B)
    __rt_lib_init_signal_1                   0x080002f7   Thumb Code     0  libinit2.o(.ARM.Collect$$libinit$$0000001F)
    __rt_lib_init_stdio_2                    0x080002f7   Thumb Code     0  libinit2.o(.ARM.Collect$$libinit$$00000026)
    __rt_lib_init_alloca_1                   0x080002fb   Thumb Code     0  libinit2.o(.ARM.Collect$$libinit$$00000030)
    __rt_lib_init_argv_1                     0x080002fb   Thumb Code     0  libinit2.o(.ARM.Collect$$libinit$$0000002E)
    __rt_lib_init_cpp_1                      0x080002fb   Thumb Code     0  libinit2.o(.ARM.Collect$$libinit$$00000034)
    __rt_lib_init_exceptions_1               0x080002fb   Thumb Code     0  libinit2.o(.ARM.Collect$$libinit$$00000032)
    __rt_lib_init_return                     0x080002fb   Thumb Code     0  libinit2.o(.ARM.Collect$$libinit$$00000035)
    __rt_lib_init_stdio_1                    0x080002fb   Thumb Code     0  libinit2.o(.ARM.Collect$$libinit$$00000027)
    __rt_lib_shutdown                        0x080002fd   Thumb Code     0  libshutdown.o(.ARM.Collect$$libshutdown$$00000000)
    __rt_lib_shutdown_cpp_1                  0x080002ff   Thumb Code     0  libshutdown2.o(.ARM.Collect$$libshutdown$$00000002)
    __rt_lib_shutdown_stdio_2                0x080002ff   Thumb Code     0  libshutdown2.o(.ARM.Collect$$libshutdown$$00000003)
    __rt_lib_shutdown_fp_trap_1              0x08000303   Thumb Code     0  libshutdown2.o(.ARM.Collect$$libshutdown$$00000007)
    __rt_lib_shutdown_heap_1                 0x08000303   Thumb Code     0  libshutdown2.o(.ARM.Collect$$libshutdown$$0000000F)
    __rt_lib_shutdown_return                 0x08000303   Thumb Code     0  libshutdown2.o(.ARM.Collect$$libshutdown$$00000010)
    __rt_lib_shutdown_signal_1               0x08000303   Thumb Code     0  libshutdown2.o(.ARM.Collect$$libshutdown$$0000000A)
    __rt_lib_shutdown_stdio_1                0x08000303   Thumb Code     0  libshutdown2.o(.ARM.Collect$$libshutdown$$00000004)
    __rt_lib_shutdown_user_alloc_1           0x08000303   Thumb Code     0  libshutdown2.o(.ARM.Collect$$libshutdown$$0000000C)
    __rt_entry                               0x08000305   Thumb Code     0  __rtentry.o(.ARM.Collect$$rtentry$$00000000)
    __rt_entry_presh_1                       0x08000305   Thumb Code     0  __rtentry2.o(.ARM.Collect$$rtentry$$00000002)
    __rt_entry_sh                            0x08000305   Thumb Code     0  __rtentry4.o(.ARM.Collect$$rtentry$$00000004)
    __rt_entry_li                            0x0800030b   Thumb Code     0  __rtentry2.o(.ARM.Collect$$rtentry$$0000000A)
    __rt_entry_postsh_1                      0x0800030b   Thumb Code     0  __rtentry2.o(.ARM.Collect$$rtentry$$00000009)
    __rt_entry_main                          0x0800030f   Thumb Code     0  __rtentry2.o(.ARM.Collect$$rtentry$$0000000D)
    __rt_entry_postli_1                      0x0800030f   Thumb Code     0  __rtentry2.o(.ARM.Collect$$rtentry$$0000000C)
    __rt_exit                                0x08000317   Thumb Code     0  rtexit.o(.ARM.Collect$$rtexit$$00000000)
    __rt_exit_ls                             0x08000319   Thumb Code     0  rtexit2.o(.ARM.Collect$$rtexit$$00000003)
    __rt_exit_prels_1                        0x08000319   Thumb Code     0  rtexit2.o(.ARM.Collect$$rtexit$$00000002)
    __rt_exit_exit                           0x0800031d   Thumb Code     0  rtexit2.o(.ARM.Collect$$rtexit$$00000004)
    rand                                     0x08000325   Thumb Code    48  rand.o(.emb_text)
    Reset_Handler                            0x08000359   Thumb Code     8  startup_stm32f446xx.o(.text)
    NMI_Handler                              0x08000361   Thumb Code     2  startup_stm32f446xx.o(.text)
    HardFault_Handler                        0x08000363   Thumb Code     2  startup_stm32f446xx.o(.text)
    MemManage_Handler                        0x08000365   Thumb Code     2  startup_stm32f446xx.o(.text)
    BusFault_Handler                         0x08000367   Thumb Code     2  startup_stm32f446xx.o(.text)
    UsageFault_Handler                       0x08000369   Thumb Code     2  startup_stm32f446xx.o(.text)
    SVC_Handler                              0x0800036b   Thumb Code     2  startup_stm32f446xx.o(.text)
    DebugMon_Handler                         0x0800036d   Thumb Code     2  startup_stm32f446xx.o(.text)
    PendSV_Handler                           0x0800036f   Thumb Code     2  startup_stm32f446xx.o(.text)
    SysTick_Handler                          0x08000371   Thumb Code     2  startup_stm32f446xx.o(.text)
    ADC_IRQHandler                           0x08000373   Thumb Code     0  startup_stm32f446xx.o(.text)
    CAN1_RX0_IRQHandler                      0x08000373   Thumb Code     0  startup_stm32f446xx.o(.text)
    CAN1_RX1_IRQHandler                      0x08000373   Thumb Code     0  startup_stm32f446xx.o(.text)
    CAN1_SCE_IRQHandler                      0x08000373   Thumb Code     0  startup_stm32f446xx.o(.text)
    CAN1_TX_IRQHandler                       0x08000373   Thumb Code     0  startup_stm32f446xx.o(.text)
    CAN2_RX0_IRQHandler                      0x08000373   Thumb Code     0  startup_stm32f446xx.o(.text)
    CAN2_RX1_IRQHandler                      0x08000373   Thumb Code     0  startup_stm32f446xx.o(.text)
    CAN2_SCE_IRQHandler                      0x08000373   Thumb Code     0  startup_stm32f446xx.o(.text)
    CAN2_TX_IRQHandler                       0x08000373   Thumb Code     0  startup_stm32f446xx.o(.text)
    CEC_IRQHandler                           0x08000373   Thumb Code     0  startup_stm32f446xx.o(.text)
    DCMI_IRQHandler                          0x08000373   Thumb Code     0  startup_stm32f446xx.o(.text)
    DMA1_Stream0_IRQHandler                  0x08000373   Thumb Code     0  startup_stm32f446xx.o(.text)
    DMA1_Stream1_IRQHandler                  0x08000373   Thumb Code     0  startup_stm32f446xx.o(.text)
    DMA1_Stream2_IRQHandler                  0x08000373   Thumb Code     0  startup_stm32f446xx.o(.text)
    DMA1_Stream3_IRQHandler                  0x08000373   Thumb Code     0  startup_stm32f446xx.o(.text)
    DMA1_Stream4_IRQHandler                  0x08000373   Thumb Code     0  startup_stm32f446xx.o(.text)
    DMA1_Stream5_IRQHandler                  0x08000373   Thumb Code     0  startup_stm32f446xx.o(.text)
    DMA1_Stream6_IRQHandler                  0x08000373   Thumb Code     0  startup_stm32f446xx.o(.text)
    DMA1_Stream7_IRQHandler                  0x08000373   Thumb Code     0  startup_stm32f446xx.o(.text)
    DMA2_Stream0_IRQHandler                  0x08000373   Thumb Code     0  startup_stm32f446xx.o(.text)
    DMA2_Stream1_IRQHandler                  0x08000373   Thumb Code     0  startup_stm32f446xx.o(.text)
    DMA2_Stream2_IRQHandler                  0x08000373   Thumb Code     0  startup_stm32f446xx.o(.text)
    DMA2_Stream3_IRQHandler                  0x08000373   Thumb Code     0  startup_stm32f446xx.o(.text)
    DMA2_Stream4_IRQHandler                  0x08000373   Thumb Code     0  startup_stm32f446xx.o(.text)
    DMA2_Stream5_IRQHandler                  0x08000373   Thumb Code     0  startup_stm32f446xx.o(.text)
    DMA2_Stream6_IRQHandler                  0x08000373   Thumb Code     0  startup_stm32f446xx.o(.text)
    DMA2_Stream7_IRQHandler                  0x08000373   Thumb Code     0  startup_stm32f446xx.o(.text)
    EXTI0_IRQHandler                         0x08000373   Thumb Code     0  startup_stm32f446xx.o(.text)
    EXTI1_IRQHandler                         0x08000373   Thumb Code     0  startup_stm32f446xx.o(.text)
    EXTI2_IRQHandler                         0x08000373   Thumb Code     0  startup_stm32f446xx.o(.text)
    EXTI3_IRQHandler                         0x08000373   Thumb Code     0  startup_stm32f446xx.o(.text)
    EXTI9_5_IRQHandler                       0x08000373   Thumb Code     0  startup_stm32f446xx.o(.text)
    FLASH_IRQHandler                         0x08000373   Thumb Code     0  startup_stm32f446xx.o(.text)
    FMC_IRQHandler                           0x08000373   Thumb Code     0  startup_stm32f446xx.o(.text)
    FMPI2C1_ER_IRQHandler                    0x08000373   Thumb Code     0  startup_stm32f446xx.o(.text)
    FMPI2C1_EV_IRQHandler                    0x08000373   Thumb Code     0  startup_stm32f446xx.o(.text)
    FPU_IRQHandler                           0x08000373   Thumb Code     0  startup_stm32f446xx.o(.text)
    I2C1_ER_IRQHandler                       0x08000373   Thumb Code     0  startup_stm32f446xx.o(.text)
    I2C1_EV_IRQHandler                       0x08000373   Thumb Code     0  startup_stm32f446xx.o(.text)
    I2C2_ER_IRQHandler                       0x08000373   Thumb Code     0  startup_stm32f446xx.o(.text)
    I2C2_EV_IRQHandler                       0x08000373   Thumb Code     0  startup_stm32f446xx.o(.text)
    I2C3_ER_IRQHandler                       0x08000373   Thumb Code     0  startup_stm32f446xx.o(.text)
    I2C3_EV_IRQHandler                       0x08000373   Thumb Code     0  startup_stm32f446xx.o(.text)
    OTG_FS_IRQHandler                        0x08000373   Thumb Code     0  startup_stm32f446xx.o(.text)
    OTG_FS_WKUP_IRQHandler                   0x08000373   Thumb Code     0  startup_stm32f446xx.o(.text)
    OTG_HS_EP1_IN_IRQHandler                 0x08000373   Thumb Code     0  startup_stm32f446xx.o(.text)
    OTG_HS_EP1_OUT_IRQHandler                0x08000373   Thumb Code     0  startup_stm32f446xx.o(.text)
    OTG_HS_IRQHandler                        0x08000373   Thumb Code     0  startup_stm32f446xx.o(.text)
    OTG_HS_WKUP_IRQHandler                   0x08000373   Thumb Code     0  startup_stm32f446xx.o(.text)
    PVD_IRQHandler                           0x08000373   Thumb Code     0  startup_stm32f446xx.o(.text)
    QUADSPI_IRQHandler                       0x08000373   Thumb Code     0  startup_stm32f446xx.o(.text)
    RCC_IRQHandler                           0x08000373   Thumb Code     0  startup_stm32f446xx.o(.text)
    RTC_Alarm_IRQHandler                     0x08000373   Thumb Code     0  startup_stm32f446xx.o(.text)
    RTC_WKUP_IRQHandler                      0x08000373   Thumb Code     0  startup_stm32f446xx.o(.text)
    SAI1_IRQHandler                          0x08000373   Thumb Code     0  startup_stm32f446xx.o(.text)
    SAI2_IRQHandler                          0x08000373   Thumb Code     0  startup_stm32f446xx.o(.text)
    SDIO_IRQHandler                          0x08000373   Thumb Code     0  startup_stm32f446xx.o(.text)
    SPDIF_RX_IRQHandler                      0x08000373   Thumb Code     0  startup_stm32f446xx.o(.text)
    SPI1_IRQHandler                          0x08000373   Thumb Code     0  startup_stm32f446xx.o(.text)
    SPI2_IRQHandler                          0x08000373   Thumb Code     0  startup_stm32f446xx.o(.text)
    SPI3_IRQHandler                          0x08000373   Thumb Code     0  startup_stm32f446xx.o(.text)
    SPI4_IRQHandler                          0x08000373   Thumb Code     0  startup_stm32f446xx.o(.text)
    TAMP_STAMP_IRQHandler                    0x08000373   Thumb Code     0  startup_stm32f446xx.o(.text)
    TIM1_BRK_TIM9_IRQHandler                 0x08000373   Thumb Code     0  startup_stm32f446xx.o(.text)
    TIM1_CC_IRQHandler                       0x08000373   Thumb Code     0  startup_stm32f446xx.o(.text)
    TIM1_TRG_COM_TIM11_IRQHandler            0x08000373   Thumb Code     0  startup_stm32f446xx.o(.text)
    TIM1_UP_TIM10_IRQHandler                 0x08000373   Thumb Code     0  startup_stm32f446xx.o(.text)
    TIM2_IRQHandler                          0x08000373   Thumb Code     0  startup_stm32f446xx.o(.text)
    TIM3_IRQHandler                          0x08000373   Thumb Code     0  startup_stm32f446xx.o(.text)
    TIM4_IRQHandler                          0x08000373   Thumb Code     0  startup_stm32f446xx.o(.text)
    TIM8_BRK_TIM12_IRQHandler                0x08000373   Thumb Code     0  startup_stm32f446xx.o(.text)
    TIM8_CC_IRQHandler                       0x08000373   Thumb Code     0  startup_stm32f446xx.o(.text)
    TIM8_TRG_COM_TIM14_IRQHandler            0x08000373   Thumb Code     0  startup_stm32f446xx.o(.text)
    TIM8_UP_TIM13_IRQHandler                 0x08000373   Thumb Code     0  startup_stm32f446xx.o(.text)
    UART4_IRQHandler                         0x08000373   Thumb Code     0  startup_stm32f446xx.o(.text)
    UART5_IRQHandler                         0x08000373   Thumb Code     0  startup_stm32f446xx.o(.text)
    USART1_IRQHandler                        0x08000373   Thumb Code     0  startup_stm32f446xx.o(.text)
    USART2_IRQHandler                        0x08000373   Thumb Code     0  startup_stm32f446xx.o(.text)
    USART3_IRQHandler                        0x08000373   Thumb Code     0  startup_stm32f446xx.o(.text)
    USART6_IRQHandler                        0x08000373   Thumb Code     0  startup_stm32f446xx.o(.text)
    WWDG_IRQHandler                          0x08000373   Thumb Code     0  startup_stm32f446xx.o(.text)
    __user_initial_stackheap                 0x08000375   Thumb Code     0  startup_stm32f446xx.o(.text)
    printf                                   0x08000399   Thumb Code    20  printf.o(.text)
    abs                                      0x080003b1   Thumb Code     8  abs.o(.text)
    srand                                    0x080003b9   Thumb Code    42  rand.o(.text)
    _rand_init                               0x080003e3   Thumb Code     4  rand.o(.text)
    strlen                                   0x080003f5   Thumb Code    62  strlen.o(.text)
    strcmp                                   0x08000439   Thumb Code   124  strcmpv7em.o(.text)
    __use_two_region_memory                  0x080004b5   Thumb Code     2  heapauxi.o(.text)
    __rt_heap_escrow                         0x080004b7   Thumb Code     2  heapauxi.o(.text)
    __rt_heap_expand                         0x080004b9   Thumb Code     2  heapauxi.o(.text)
    _printf_pre_padding                      0x080004bb   Thumb Code    44  _printf_pad.o(.text)
    _printf_post_padding                     0x080004e7   Thumb Code    34  _printf_pad.o(.text)
    _printf_truncate_signed                  0x08000509   Thumb Code    18  _printf_truncate.o(.text)
    _printf_truncate_unsigned                0x0800051b   Thumb Code    18  _printf_truncate.o(.text)
    _printf_str                              0x0800052d   Thumb Code    82  _printf_str.o(.text)
    _printf_int_dec                          0x08000581   Thumb Code   104  _printf_dec.o(.text)
    _printf_charcount                        0x080005f9   Thumb Code    40  _printf_charcount.o(.text)
    _printf_char_file                        0x08000621   Thumb Code    32  _printf_char_file.o(.text)
    _printf_wctomb                           0x08000645   Thumb Code   182  _printf_wctomb.o(.text)
    _printf_longlong_dec                     0x08000701   Thumb Code   108  _printf_longlong_dec.o(.text)
    _printf_longlong_oct                     0x0800077d   Thumb Code    68  _printf_oct_int_ll.o(.text)
    _printf_int_oct                          0x080007c1   Thumb Code    24  _printf_oct_int_ll.o(.text)
    _printf_ll_oct                           0x080007d9   Thumb Code    12  _printf_oct_int_ll.o(.text)
    _printf_longlong_hex                     0x080007ed   Thumb Code    86  _printf_hex_int_ll_ptr.o(.text)
    _printf_int_hex                          0x08000843   Thumb Code    28  _printf_hex_int_ll_ptr.o(.text)
    _printf_ll_hex                           0x0800085f   Thumb Code    12  _printf_hex_int_ll_ptr.o(.text)
    _printf_hex_ptr                          0x0800086b   Thumb Code    18  _printf_hex_int_ll_ptr.o(.text)
    __printf                                 0x08000881   Thumb Code   388  __printf_flags_ss_wp.o(.text)
    _ll_udiv10                               0x08000a09   Thumb Code   138  lludiv10.o(.text)
    _printf_int_common                       0x08000a93   Thumb Code   178  _printf_intcommon.o(.text)
    _printf_fp_dec_real                      0x08000cf5   Thumb Code   620  _printf_fp_dec.o(.text)
    _printf_fp_hex_real                      0x08000f61   Thumb Code   756  _printf_fp_hex.o(.text)
    _printf_char_common                      0x08001267   Thumb Code    32  _printf_char_common.o(.text)
    _printf_cs_common                        0x0800128d   Thumb Code    20  _printf_char.o(.text)
    _printf_char                             0x080012a1   Thumb Code    16  _printf_char.o(.text)
    _printf_string                           0x080012b1   Thumb Code     8  _printf_char.o(.text)
    _printf_lcs_common                       0x080012b9   Thumb Code    20  _printf_wchar.o(.text)
    _printf_wchar                            0x080012cd   Thumb Code    16  _printf_wchar.o(.text)
    _printf_wstring                          0x080012dd   Thumb Code     8  _printf_wchar.o(.text)
    ferror                                   0x080012e5   Thumb Code     8  ferror.o(.text)
    _initio                                  0x080012ed   Thumb Code   210  initio.o(.text)
    _terminateio                             0x080013bf   Thumb Code    56  initio.o(.text)
    _c16rtomb                                0x08001425   Thumb Code    72  _c16rtomb.o(.text)
    _wcrtomb                                 0x08001425   Thumb Code     0  _c16rtomb.o(.text)
    __user_setup_stackheap                   0x0800146d   Thumb Code    74  sys_stackheap_outer.o(.text)
    __rt_ctype_table                         0x080014b9   Thumb Code    16  rt_ctype_table.o(.text)
    __rt_locale                              0x080014c9   Thumb Code     8  rt_locale_intlibspace.o(.text)
    free                                     0x080014d1   Thumb Code    78  h1_free.o(.text)
    _printf_fp_infnan                        0x08001521   Thumb Code   112  _printf_fp_infnan.o(.text)
    _btod_etento                             0x080015a1   Thumb Code   224  bigflt0.o(.text)
    __flsbuf                                 0x08001685   Thumb Code   482  flsbuf.o(.text)
    __flsbuf_byte                            0x08001685   Thumb Code     0  flsbuf.o(.text)
    __flsbuf_wide                            0x08001685   Thumb Code     0  flsbuf.o(.text)
    setvbuf                                  0x08001867   Thumb Code    70  setvbuf.o(.text)
    freopen                                  0x080018ad   Thumb Code   160  fopen.o(.text)
    fopen                                    0x0800194d   Thumb Code    74  fopen.o(.text)
    _fclose_internal                         0x0800199d   Thumb Code    76  fclose.o(.text)
    fclose                                   0x0800199d   Thumb Code     0  fclose.o(.text)
    exit                                     0x080019e9   Thumb Code    18  exit.o(.text)
    __rt_SIGRTRED                            0x080019fb   Thumb Code    14  defsig_rtred_outer.o(.text)
    __aeabi_memclr4                          0x08001a09   Thumb Code     0  rt_memclr_w.o(.text)
    __aeabi_memclr8                          0x08001a09   Thumb Code     0  rt_memclr_w.o(.text)
    __rt_memclr_w                            0x08001a09   Thumb Code     0  rt_memclr_w.o(.text)
    _memset_w                                0x08001a0d   Thumb Code    74  rt_memclr_w.o(.text)
    __user_libspace                          0x08001a59   Thumb Code     8  libspace.o(.text)
    __user_perproc_libspace                  0x08001a59   Thumb Code     0  libspace.o(.text)
    __user_perthread_libspace                0x08001a59   Thumb Code     0  libspace.o(.text)
    __rt_heap_descriptor                     0x08001a61   Thumb Code     8  rt_heap_descriptor_intlibspace.o(.text)
    __use_no_heap                            0x08001a69   Thumb Code     2  hguard.o(.text)
    __heap$guard                             0x08001a6b   Thumb Code     2  hguard.o(.text)
    _terminate_user_alloc                    0x08001a6d   Thumb Code     2  init_alloc.o(.text)
    _init_user_alloc                         0x08001a6f   Thumb Code     2  init_alloc.o(.text)
    __Heap_Full                              0x08001a71   Thumb Code    34  init_alloc.o(.text)
    __Heap_Broken                            0x08001a93   Thumb Code     6  init_alloc.o(.text)
    _init_alloc                              0x08001a99   Thumb Code    94  init_alloc.o(.text)
    malloc                                   0x08001af7   Thumb Code    94  h1_alloc.o(.text)
    _fseek                                   0x08001b55   Thumb Code   242  fseek.o(.text)
    fseek                                    0x08001b55   Thumb Code     0  fseek.o(.text)
    _seterr                                  0x08001c4d   Thumb Code    20  stdio.o(.text)
    _writebuf                                0x08001c61   Thumb Code   108  stdio.o(.text)
    _fflush                                  0x08001ccd   Thumb Code    70  stdio.o(.text)
    _deferredlazyseek                        0x08001d13   Thumb Code    60  stdio.o(.text)
    __sig_exit                               0x08001d55   Thumb Code    10  defsig_exit.o(.text)
    __rt_SIGRTRED_inner                      0x08001d61   Thumb Code    14  defsig_rtred_inner.o(.text)
    __rt_SIGRTMEM                            0x08001d95   Thumb Code    14  defsig_rtmem_outer.o(.text)
    _sys_exit                                0x08001da5   Thumb Code     8  sys_exit.o(.text)
    __I$use$semihosting                      0x08001db1   Thumb Code     0  use_no_semi.o(.text)
    __use_no_semihosting_swi                 0x08001db1   Thumb Code     2  use_no_semi.o(.text)
    __Heap_Initialize                        0x08001db3   Thumb Code    10  h1_init.o(.text)
    __semihosting_library_function           0x08001db3   Thumb Code     0  indicate_semi.o(.text)
    _maybe_terminate_alloc                   0x08001db3   Thumb Code     0  maybetermalloc1.o(.text)
    __Heap_DescSize                          0x08001dbd   Thumb Code     4  h1_init.o(.text)
    __Heap_ProvideMemory                     0x08001dc1   Thumb Code    52  h1_extend.o(.text)
    _ftell_internal                          0x08001df5   Thumb Code    66  ftell.o(.text)
    ftell                                    0x08001df5   Thumb Code     0  ftell.o(.text)
    __default_signal_display                 0x08001e37   Thumb Code    50  defsig_general.o(.text)
    __rt_SIGRTMEM_inner                      0x08001e69   Thumb Code    22  defsig_rtmem_inner.o(.text)
    _ttywrch                                 0x08001eb9   Thumb Code    14  sys_wrch.o(.text)
    __aeabi_errno_addr                       0x08001ec9   Thumb Code     8  rt_errno_addr_intlibspace.o(.text)
    __errno$intlibspace                      0x08001ec9   Thumb Code     0  rt_errno_addr_intlibspace.o(.text)
    __rt_errno_addr$intlibspace              0x08001ec9   Thumb Code     0  rt_errno_addr_intlibspace.o(.text)
    Buzzer_Stop                              0x08001ed1   Thumb Code    34  piezo.o(.text.Buzzer_Stop)
    CS_Low                                   0x08001ef5   Thumb Code    16  spi.o(.text.CS_Low)
    Display_Init                             0x08001f05   Thumb Code  1164  ili9341.o(.text.Display_Init)
    Draw_Bitmap                              0x08002391   Thumb Code   168  ili9341.o(.text.Draw_Bitmap)
    Draw_Char_BG                             0x08002439   Thumb Code   370  ili9341.o(.text.Draw_Char_BG)
    Draw_Pixel                               0x080025ad   Thumb Code    70  ili9341.o(.text.Draw_Pixel)
    Draw_String_BG                           0x080025f5   Thumb Code   284  ili9341.o(.text.Draw_String_BG)
    EXTI15_10_IRQHandler                     0x08002711   Thumb Code   108  testmain.o(.text.EXTI15_10_IRQHandler)
    EXTI4_IRQHandler                         0x0800277d   Thumb Code   508  testmain.o(.text.EXTI4_IRQHandler)
    Encoder_TIM_init                         0x08002979   Thumb Code   110  rotary_encoder.o(.text.Encoder_TIM_init)
    Encoder_init                             0x080029e9   Thumb Code   194  rotary_encoder.o(.text.Encoder_init)
    Eye_Move_To                              0x08002aad   Thumb Code    18  servo.o(.text.Eye_Move_To)
    Eyelid_Move_To                           0x08002ac1   Thumb Code    18  servo.o(.text.Eyelid_Move_To)
    Fill_Color                               0x08002ad5   Thumb Code   170  ili9341.o(.text.Fill_Color)
    Fill_Rect                                0x08002b81   Thumb Code   268  ili9341.o(.text.Fill_Rect)
    Fill_Screen                              0x08002c8d   Thumb Code    88  ili9341.o(.text.Fill_Screen)
    GPIO_PinMode_Setup                       0x08002ce5   Thumb Code    94  ili9341.o(.text.GPIO_PinMode_Setup)
    HealthClear                              0x08002d45   Thumb Code   134  health_bar.o(.text.HealthClear)
    HealthCurrent                            0x08002dcd   Thumb Code   152  health_bar.o(.text.HealthCurrent)
    HealthMinusMinus                         0x08002e65   Thumb Code   198  health_bar.o(.text.HealthMinusMinus)
    HealthPlusPlus                           0x08002f2d   Thumb Code   204  health_bar.o(.text.HealthPlusPlus)
    I2C1_byteRead                            0x08002ff9   Thumb Code   332  i2c.o(.text.I2C1_byteRead)
    I2C1_byteWrite                           0x08003145   Thumb Code   238  i2c.o(.text.I2C1_byteWrite)
    I2C_init                                 0x08003235   Thumb Code   164  i2c.o(.text.I2C_init)
    ILI_8Bit_Command                         0x080032d9   Thumb Code    64  ili9341.o(.text.ILI_8Bit_Command)
    ILI_8Bit_Data                            0x08003319   Thumb Code    64  ili9341.o(.text.ILI_8Bit_Data)
    ILI_Push_16Bit                           0x08003359   Thumb Code    28  ili9341.o(.text.ILI_Push_16Bit)
    ITM_SendChar                             0x08003375   Thumb Code    66  retarget_io.o(.text.ITM_SendChar)
    Init_seq                                 0x080033b9   Thumb Code   132  sevenseg.o(.text.Init_seq)
    MENU_SCREENS                             0x0800343d   Thumb Code  1886  testmain.o(.text.MENU_SCREENS)
    Play_Tone_1                              0x08003b9d   Thumb Code    24  piezo.o(.text.Play_Tone_1)
    Play_Tone_2                              0x08003bb5   Thumb Code    26  piezo.o(.text.Play_Tone_2)
    Play_Tone_3                              0x08003bd1   Thumb Code    26  piezo.o(.text.Play_Tone_3)
    Play_Tone_4                              0x08003bed   Thumb Code    26  piezo.o(.text.Play_Tone_4)
    Read_ADC                                 0x08003c09   Thumb Code   256  adc.o(.text.Read_ADC)
    Read_Date                                0x08003d09   Thumb Code   358  testmain.o(.text.Read_Date)
    Read_Time                                0x08003e71   Thumb Code   358  testmain.o(.text.Read_Time)
    Rotate_Display                           0x08003fd9   Thumb Code   346  ili9341.o(.text.Rotate_Display)
    SPI_Enable                               0x08004135   Thumb Code    18  spi.o(.text.SPI_Enable)
    SPI_GPIO                                 0x08004149   Thumb Code   188  spi.o(.text.SPI_GPIO)
    SPI_Init                                 0x08004205   Thumb Code    88  spi.o(.text.SPI_Init)
    SPI_Transmit                             0x0800425d   Thumb Code   158  spi.o(.text.SPI_Transmit)
    Set_Address_Window                       0x080042fd   Thumb Code    74  ili9341.o(.text.Set_Address_Window)
    Set_Date                                 0x08004349   Thumb Code    58  testmain.o(.text.Set_Date)
    Set_TD                                   0x08004385   Thumb Code   752  testmain.o(.text.Set_TD)
    Set_Time                                 0x08004675   Thumb Code    58  testmain.o(.text.Set_Time)
    SysTick_Init                             0x080046b1   Thumb Code    46  ili9341.o(.text.SysTick_Init)
    SystemInit                               0x080046e1   Thumb Code    18  system_stm32f4xx.o(.text.SystemInit)
    TIM1_CH1_Disable                         0x080046f5   Thumb Code    16  servo.o(.text.TIM1_CH1_Disable)
    TIM1_CH1_Enable                          0x08004705   Thumb Code    16  servo.o(.text.TIM1_CH1_Enable)
    TIM1_CH2_Disable                         0x08004715   Thumb Code    16  servo.o(.text.TIM1_CH2_Disable)
    TIM1_CH2_Enable                          0x08004725   Thumb Code    16  servo.o(.text.TIM1_CH2_Enable)
    TIM1_CH3_Disable                         0x08004735   Thumb Code    16  servo.o(.text.TIM1_CH3_Disable)
    TIM1_CH3_Enable                          0x08004745   Thumb Code    16  servo.o(.text.TIM1_CH3_Enable)
    TIM1_setup                               0x08004755   Thumb Code   230  servo.o(.text.TIM1_setup)
    TIM5_IRQHandler                          0x0800483d   Thumb Code   276  testmain.o(.text.TIM5_IRQHandler)
    TIM6_DAC_IRQHandler                      0x08004951   Thumb Code   142  servo.o(.text.TIM6_DAC_IRQHandler)
    TIM7_IRQHandler                          0x080049e1   Thumb Code   496  piezo.o(.text.TIM7_IRQHandler)
    TIM_GPIO                                 0x08004bd1   Thumb Code   126  servo.o(.text.TIM_GPIO)
    Timer6_Init                              0x08004c51   Thumb Code   108  servo.o(.text.Timer6_Init)
    Timer7_Init                              0x08004cbd   Thumb Code   110  piezo.o(.text.Timer7_Init)
    Tongue_Move_To                           0x08004e11   Thumb Code    18  servo.o(.text.Tongue_Move_To)
    WDT_init                                 0x08004e25   Thumb Code    64  testmain.o(.text.WDT_init)
    WDT_reset                                0x08004e65   Thumb Code    20  testmain.o(.text.WDT_reset)
    _sys_close                               0x08004f69   Thumb Code    74  retarget_io.o(.text._sys_close)
    _sys_flen                                0x08004fb5   Thumb Code    72  retarget_io.o(.text._sys_flen)
    _sys_istty                               0x08004ffd   Thumb Code    72  retarget_io.o(.text._sys_istty)
    _sys_open                                0x08005045   Thumb Code   132  retarget_io.o(.text._sys_open)
    _sys_seek                                0x080050c9   Thumb Code    82  retarget_io.o(.text._sys_seek)
    _sys_write                               0x0800511d   Thumb Code   152  retarget_io.o(.text._sys_write)
    adc_init                                 0x080051b5   Thumb Code   134  adc.o(.text.adc_init)
    delayMS                                  0x0800523d   Thumb Code    66  ili9341.o(.text.delayMS)
    delayMicroS                              0x08005281   Thumb Code    66  ili9341.o(.text.delayMicroS)
    dist                                     0x080052c5   Thumb Code   102  sonar.o(.text.dist)
    hallEffect_pinInit                       0x0800532d   Thumb Code   194  hall.o(.text.hallEffect_pinInit)
    init_ShiftRegister                       0x080053f1   Thumb Code   106  health_bar.o(.text.init_ShiftRegister)
    main                                     0x0800545d   Thumb Code  1686  testmain.o(.text.main)
    millis                                   0x08005af5   Thumb Code    14  piezo.o(.text.millis)
    sevenSeg_write                           0x08005b05   Thumb Code   140  sevenseg.o(.text.sevenSeg_write)
    sonar_gpio_init                          0x08005b91   Thumb Code   308  sonar.o(.text.sonar_gpio_init)
    stepper_init                             0x08005ce5   Thumb Code   130  stepper.o(.text.stepper_init)
    tim5_init                                0x08005d69   Thumb Code   106  health_bar.o(.text.tim5_init)
    _btod_d2e                                0x08005dd3   Thumb Code    62  btod.o(CL$$btod_d2e)
    _d2e_denorm_low                          0x08005e11   Thumb Code    70  btod.o(CL$$btod_d2e_denorm_low)
    _d2e_norm_op1                            0x08005e57   Thumb Code    96  btod.o(CL$$btod_d2e_norm_op1)
    __btod_div_common                        0x08005eb9   Thumb Code   696  btod.o(CL$$btod_div_common)
    _e2e                                     0x080061f1   Thumb Code   220  btod.o(CL$$btod_e2e)
    _btod_ediv                               0x080062cd   Thumb Code    42  btod.o(CL$$btod_ediv)
    _btod_emul                               0x080062f7   Thumb Code    42  btod.o(CL$$btod_emul)
    __btod_mult_common                       0x08006321   Thumb Code   580  btod.o(CL$$btod_mult_common)
    __ARM_fpclassify                         0x08006565   Thumb Code    48  fpclassify.o(i.__ARM_fpclassify)
    _is_digit                                0x08006595   Thumb Code    14  __printf_wp.o(i._is_digit)
    fputc                                    0x080065a3   Thumb Code    28  fputc.o(i.fputc)
    _get_lc_numeric                          0x080065c1   Thumb Code    44  lc_numeric_c.o(locale$$code)
    _get_lc_ctype                            0x080065ed   Thumb Code    44  lc_ctype_c.o(locale$$code)
    __aeabi_dadd                             0x08006619   Thumb Code     0  daddsub_clz.o(x$fpl$dadd)
    _dadd                                    0x08006619   Thumb Code   332  daddsub_clz.o(x$fpl$dadd)
    __aeabi_d2iz                             0x08006769   Thumb Code     0  dfix.o(x$fpl$dfix)
    _dfix                                    0x08006769   Thumb Code    94  dfix.o(x$fpl$dfix)
    __aeabi_i2d                              0x080067c7   Thumb Code     0  dflt_clz.o(x$fpl$dflt)
    _dflt                                    0x080067c7   Thumb Code    46  dflt_clz.o(x$fpl$dflt)
    __aeabi_dmul                             0x080067f5   Thumb Code     0  dmul.o(x$fpl$dmul)
    _dmul                                    0x080067f5   Thumb Code   332  dmul.o(x$fpl$dmul)
    __fpl_dnaninf                            0x08006949   Thumb Code   156  dnaninf.o(x$fpl$dnaninf)
    __fpl_dretinf                            0x080069e5   Thumb Code    12  dretinf.o(x$fpl$dretinf)
    __aeabi_dsub                             0x080069f1   Thumb Code     0  daddsub_clz.o(x$fpl$dsub)
    _dsub                                    0x080069f1   Thumb Code   472  daddsub_clz.o(x$fpl$dsub)
    _fp_init                                 0x08006bcd   Thumb Code    26  fpinit.o(x$fpl$fpinit)
    __fplib_config_fpu_vfp                   0x08006be5   Thumb Code     0  fpinit.o(x$fpl$fpinit)
    __fplib_config_pureend_doubles           0x08006be5   Thumb Code     0  fpinit.o(x$fpl$fpinit)
    _printf_fp_dec                           0x08006be7   Thumb Code     4  printf1.o(x$fpl$printf1)
    _printf_fp_hex                           0x08006beb   Thumb Code     4  printf2.o(x$fpl$printf2)
    __I$use$fp                               0x08006bee   Number         0  usenofp.o(x$fpl$usenofp)
    Happy                                    0x08006cec   Data       84400  testmain.o(.rodata.Happy)
    HappyImage                               0x0801b69c   Data          12  testmain.o(.rodata.HappyImage)
    Hungry                                   0x0801b6a8   Data       87740  testmain.o(.rodata.Hungry)
    HungryImage                              0x08030d64   Data          12  testmain.o(.rodata.HungryImage)
    Sleepy                                   0x08030d70   Data       83556  testmain.o(.rodata.Sleepy)
    SleepyImage                              0x080453d4   Data          12  testmain.o(.rodata.SleepyImage)
    __stderr_name                            0x080453e0   Data           8  retarget_io.o(.rodata.__stderr_name)
    __stdin_name                             0x080453e8   Data           7  retarget_io.o(.rodata.__stdin_name)
    __stdout_name                            0x080453ef   Data           8  retarget_io.o(.rodata.__stdout_name)
    content                                  0x080453f8   Data       83978  testmain.o(.rodata.content)
    contentImage                             0x08059c04   Data          12  testmain.o(.rodata.contentImage)
    Region$$Table$$Base                      0x0805b638   Number         0  anon$$obj.o(Region$$Table)
    Region$$Table$$Limit                     0x0805b658   Number         0  anon$$obj.o(Region$$Table)
    __ctype                                  0x0805b681   Data           0  lc_ctype_c.o(locale$$data)
    __aeabi_stdin                            0x20000000   Data           4  stdio_streams.o(.data)
    __aeabi_stdout                           0x20000004   Data           4  stdio_streams.o(.data)
    __aeabi_stderr                           0x20000008   Data           4  stdio_streams.o(.data)
    Expression_Transition                    0x2000000c   Data           1  testmain.o(.data.Expression_Transition)
    Mimic_Servo                              0x20000014   Data          16  testmain.o(.data.Mimic_Servo)
    RTC_Data_ptr                             0x20000024   Data           4  testmain.o(.data.RTC_Data_ptr)
    count                                    0x20000028   Data           4  testmain.o(.data.count)
    health                                   0x2000002c   Data           1  health_bar.o(.data.health)
    menu                                     0x20000030   Data           4  testmain.o(.data.menu)
    menu_flag                                0x20000034   Data           1  testmain.o(.data.menu_flag)
    num                                      0x20000038   Data          44  testmain.o(.data.num)
    random_seconds                           0x20000064   Data           1  testmain.o(.data.random_seconds)
    state                                    0x20000068   Data           4  testmain.o(.data.state)
    tone_state                               0x2000006c   Data           4  piezo.o(.data.tone_state)
    _random_number_data                      0x20000070   Data         228  rand.o(.bss)
    __stdin                                  0x20000154   Data          84  stdio_streams.o(.bss)
    __stdout                                 0x200001a8   Data          84  stdio_streams.o(.bss)
    __stderr                                 0x200001fc   Data          84  stdio_streams.o(.bss)
    __libspace_start                         0x20000250   Data          96  libspace.o(.bss)
    CNT_New                                  0x200002b0   Data           1  testmain.o(.bss.CNT_New)
    __temporary_stack_top$libspace           0x200002b0   Data           0  libspace.o(.bss)
    CNT_Old                                  0x200002b1   Data           1  testmain.o(.bss.CNT_Old)
    RTC_Date                                 0x200002b3   Data           1  testmain.o(.bss.RTC_Date)
    RTC_Hour                                 0x200002b4   Data           1  testmain.o(.bss.RTC_Hour)
    RTC_Minute                               0x200002b5   Data           1  testmain.o(.bss.RTC_Minute)
    RTC_Month                                0x200002b6   Data           1  testmain.o(.bss.RTC_Month)
    RTC_Second                               0x200002b7   Data           1  testmain.o(.bss.RTC_Second)
    RTC_Year                                 0x200002b8   Data           1  testmain.o(.bss.RTC_Year)
    RTC_data                                 0x200002b9   Data           1  testmain.o(.bss.RTC_data)
    Time_New                                 0x200002c0   Data           8  testmain.o(.bss.Time_New)
    Time_Old                                 0x200002c8   Data           8  testmain.o(.bss.Time_Old)
    distance                                 0x200002d4   Data           4  testmain.o(.bss.distance)
    health_ptr                               0x200002d8   Data           4  testmain.o(.bss.health_ptr)
    lightLvl                                 0x200002e0   Data           4  testmain.o(.bss.lightLvl)
    milliseconds                             0x200002e8   Data           8  piezo.o(.bss.milliseconds)
    old_count                                0x200002f0   Data           4  testmain.o(.bss.old_count)
    petFlag                                  0x20000300   Data           1  testmain.o(.bss.petFlag)
    pos                                      0x20000304   Data           4  testmain.o(.bss.pos)
    random_seconds_counter                   0x20000308   Data           4  testmain.o(.bss.random_seconds_counter)
    refresh_WDT                              0x2000030c   Data           1  testmain.o(.bss.refresh_WDT)
    swPress                                  0x2000030e   Data           1  testmain.o(.bss.swPress)
    test                                     0x2000030f   Data           1  testmain.o(.bss.test)
    timeDate                                 0x20000310   Data          14  testmain.o(.bss.timeDate)
    tmp                                      0x2000031e   Data           1  testmain.o(.bss.tmp)
    tongue_wag                               0x2000031f   Data           1  testmain.o(.bss.tongue_wag)
    value                                    0x20000320   Data           1  testmain.o(.bss.value)



==============================================================================

Memory Map of the image

  Image Entry point : 0x08000359

  Load Region LR_1 (Base: 0x08000000, Size: 0x0005b7f4, Max: 0xffffffff, ABSOLUTE)

    Execution Region ER_RO (Exec base: 0x08000000, Load base: 0x08000000, Size: 0x0005b784, Max: 0xffffffff, ABSOLUTE)

    Exec Addr    Load Addr    Size         Type   Attr      Idx    E Section Name        Object

    0x08000000   0x08000000   0x000001c4   Data   RO          607    RESET               startup_stm32f446xx.o
    0x080001c4   0x080001c4   0x00000008   Code   RO          645  * !!!main             c_w.l(__main.o)
    0x080001cc   0x080001cc   0x00000034   Code   RO         1178    !!!scatter          c_w.l(__scatter.o)
    0x08000200   0x08000200   0x0000001a   Code   RO         1180    !!handler_copy      c_w.l(__scatter_copy.o)
    0x0800021a   0x0800021a   0x00000002   PAD
    0x0800021c   0x0800021c   0x0000001c   Code   RO         1182    !!handler_zi        c_w.l(__scatter_zi.o)
    0x08000238   0x08000238   0x00000000   Code   RO          745    .ARM.Collect$$_printf_percent$$00000000  c_w.l(_printf_percent.o)
    0x08000238   0x08000238   0x00000006   Code   RO          734    .ARM.Collect$$_printf_percent$$00000001  c_w.l(_printf_n.o)
    0x0800023e   0x0800023e   0x00000006   Code   RO          736    .ARM.Collect$$_printf_percent$$00000002  c_w.l(_printf_p.o)
    0x08000244   0x08000244   0x00000006   Code   RO          741    .ARM.Collect$$_printf_percent$$00000003  c_w.l(_printf_f.o)
    0x0800024a   0x0800024a   0x00000006   Code   RO          742    .ARM.Collect$$_printf_percent$$00000004  c_w.l(_printf_e.o)
    0x08000250   0x08000250   0x00000006   Code   RO          743    .ARM.Collect$$_printf_percent$$00000005  c_w.l(_printf_g.o)
    0x08000256   0x08000256   0x00000006   Code   RO          744    .ARM.Collect$$_printf_percent$$00000006  c_w.l(_printf_a.o)
    0x0800025c   0x0800025c   0x0000000a   Code   RO          749    .ARM.Collect$$_printf_percent$$00000007  c_w.l(_printf_ll.o)
    0x08000266   0x08000266   0x00000006   Code   RO          738    .ARM.Collect$$_printf_percent$$00000008  c_w.l(_printf_i.o)
    0x0800026c   0x0800026c   0x00000006   Code   RO          739    .ARM.Collect$$_printf_percent$$00000009  c_w.l(_printf_d.o)
    0x08000272   0x08000272   0x00000006   Code   RO          740    .ARM.Collect$$_printf_percent$$0000000A  c_w.l(_printf_u.o)
    0x08000278   0x08000278   0x00000006   Code   RO          737    .ARM.Collect$$_printf_percent$$0000000B  c_w.l(_printf_o.o)
    0x0800027e   0x0800027e   0x00000006   Code   RO          735    .ARM.Collect$$_printf_percent$$0000000C  c_w.l(_printf_x.o)
    0x08000284   0x08000284   0x00000006   Code   RO          746    .ARM.Collect$$_printf_percent$$0000000D  c_w.l(_printf_lli.o)
    0x0800028a   0x0800028a   0x00000006   Code   RO          747    .ARM.Collect$$_printf_percent$$0000000E  c_w.l(_printf_lld.o)
    0x08000290   0x08000290   0x00000006   Code   RO          748    .ARM.Collect$$_printf_percent$$0000000F  c_w.l(_printf_llu.o)
    0x08000296   0x08000296   0x00000006   Code   RO          753    .ARM.Collect$$_printf_percent$$00000010  c_w.l(_printf_llo.o)
    0x0800029c   0x0800029c   0x00000006   Code   RO          754    .ARM.Collect$$_printf_percent$$00000011  c_w.l(_printf_llx.o)
    0x080002a2   0x080002a2   0x0000000a   Code   RO          750    .ARM.Collect$$_printf_percent$$00000012  c_w.l(_printf_l.o)
    0x080002ac   0x080002ac   0x00000006   Code   RO          732    .ARM.Collect$$_printf_percent$$00000013  c_w.l(_printf_c.o)
    0x080002b2   0x080002b2   0x00000006   Code   RO          733    .ARM.Collect$$_printf_percent$$00000014  c_w.l(_printf_s.o)
    0x080002b8   0x080002b8   0x00000006   Code   RO          751    .ARM.Collect$$_printf_percent$$00000015  c_w.l(_printf_lc.o)
    0x080002be   0x080002be   0x00000006   Code   RO          752    .ARM.Collect$$_printf_percent$$00000016  c_w.l(_printf_ls.o)
    0x080002c4   0x080002c4   0x00000004   Code   RO          853    .ARM.Collect$$_printf_percent$$00000017  c_w.l(_printf_percent_end.o)
    0x080002c8   0x080002c8   0x00000002   Code   RO         1005    .ARM.Collect$$libinit$$00000000  c_w.l(libinit.o)
    0x080002ca   0x080002ca   0x00000004   Code   RO          761    .ARM.Collect$$libinit$$00000001  c_w.l(libinit2.o)
    0x080002ce   0x080002ce   0x00000000   Code   RO          764    .ARM.Collect$$libinit$$00000004  c_w.l(libinit2.o)
    0x080002ce   0x080002ce   0x00000000   Code   RO          766    .ARM.Collect$$libinit$$00000006  c_w.l(libinit2.o)
    0x080002ce   0x080002ce   0x00000008   Code   RO          767    .ARM.Collect$$libinit$$00000007  c_w.l(libinit2.o)
    0x080002d6   0x080002d6   0x00000000   Code   RO          769    .ARM.Collect$$libinit$$0000000C  c_w.l(libinit2.o)
    0x080002d6   0x080002d6   0x00000000   Code   RO          771    .ARM.Collect$$libinit$$0000000E  c_w.l(libinit2.o)
    0x080002d6   0x080002d6   0x00000004   Code   RO          772    .ARM.Collect$$libinit$$0000000F  c_w.l(libinit2.o)
    0x080002da   0x080002da   0x00000000   Code   RO          773    .ARM.Collect$$libinit$$00000010  c_w.l(libinit2.o)
    0x080002da   0x080002da   0x00000006   Code   RO          774    .ARM.Collect$$libinit$$00000011  c_w.l(libinit2.o)
    0x080002e0   0x080002e0   0x00000000   Code   RO          776    .ARM.Collect$$libinit$$00000013  c_w.l(libinit2.o)
    0x080002e0   0x080002e0   0x0000000c   Code   RO          777    .ARM.Collect$$libinit$$00000014  c_w.l(libinit2.o)
    0x080002ec   0x080002ec   0x00000000   Code   RO          778    .ARM.Collect$$libinit$$00000015  c_w.l(libinit2.o)
    0x080002ec   0x080002ec   0x00000000   Code   RO          780    .ARM.Collect$$libinit$$00000017  c_w.l(libinit2.o)
    0x080002ec   0x080002ec   0x0000000a   Code   RO          781    .ARM.Collect$$libinit$$00000018  c_w.l(libinit2.o)
    0x080002f6   0x080002f6   0x00000000   Code   RO          782    .ARM.Collect$$libinit$$00000019  c_w.l(libinit2.o)
    0x080002f6   0x080002f6   0x00000000   Code   RO          784    .ARM.Collect$$libinit$$0000001B  c_w.l(libinit2.o)
    0x080002f6   0x080002f6   0x00000000   Code   RO          786    .ARM.Collect$$libinit$$0000001D  c_w.l(libinit2.o)
    0x080002f6   0x080002f6   0x00000000   Code   RO          788    .ARM.Collect$$libinit$$0000001F  c_w.l(libinit2.o)
    0x080002f6   0x080002f6   0x00000000   Code   RO          790    .ARM.Collect$$libinit$$00000021  c_w.l(libinit2.o)
    0x080002f6   0x080002f6   0x00000000   Code   RO          792    .ARM.Collect$$libinit$$00000023  c_w.l(libinit2.o)
    0x080002f6   0x080002f6   0x00000000   Code   RO          794    .ARM.Collect$$libinit$$00000025  c_w.l(libinit2.o)
    0x080002f6   0x080002f6   0x00000004   Code   RO          795    .ARM.Collect$$libinit$$00000026  c_w.l(libinit2.o)
    0x080002fa   0x080002fa   0x00000000   Code   RO          796    .ARM.Collect$$libinit$$00000027  c_w.l(libinit2.o)
    0x080002fa   0x080002fa   0x00000000   Code   RO          800    .ARM.Collect$$libinit$$0000002E  c_w.l(libinit2.o)
    0x080002fa   0x080002fa   0x00000000   Code   RO          802    .ARM.Collect$$libinit$$00000030  c_w.l(libinit2.o)
    0x080002fa   0x080002fa   0x00000000   Code   RO          804    .ARM.Collect$$libinit$$00000032  c_w.l(libinit2.o)
    0x080002fa   0x080002fa   0x00000000   Code   RO          806    .ARM.Collect$$libinit$$00000034  c_w.l(libinit2.o)
    0x080002fa   0x080002fa   0x00000002   Code   RO          807    .ARM.Collect$$libinit$$00000035  c_w.l(libinit2.o)
    0x080002fc   0x080002fc   0x00000002   Code   RO         1157    .ARM.Collect$$libshutdown$$00000000  c_w.l(libshutdown.o)
    0x080002fe   0x080002fe   0x00000000   Code   RO         1007    .ARM.Collect$$libshutdown$$00000002  c_w.l(libshutdown2.o)
    0x080002fe   0x080002fe   0x00000004   Code   RO         1008    .ARM.Collect$$libshutdown$$00000003  c_w.l(libshutdown2.o)
    0x08000302   0x08000302   0x00000000   Code   RO         1009    .ARM.Collect$$libshutdown$$00000004  c_w.l(libshutdown2.o)
    0x08000302   0x08000302   0x00000000   Code   RO         1012    .ARM.Collect$$libshutdown$$00000007  c_w.l(libshutdown2.o)
    0x08000302   0x08000302   0x00000000   Code   RO         1015    .ARM.Collect$$libshutdown$$0000000A  c_w.l(libshutdown2.o)
    0x08000302   0x08000302   0x00000000   Code   RO         1017    .ARM.Collect$$libshutdown$$0000000C  c_w.l(libshutdown2.o)
    0x08000302   0x08000302   0x00000000   Code   RO         1020    .ARM.Collect$$libshutdown$$0000000F  c_w.l(libshutdown2.o)
    0x08000302   0x08000302   0x00000002   Code   RO         1021    .ARM.Collect$$libshutdown$$00000010  c_w.l(libshutdown2.o)
    0x08000304   0x08000304   0x00000000   Code   RO          665    .ARM.Collect$$rtentry$$00000000  c_w.l(__rtentry.o)
    0x08000304   0x08000304   0x00000000   Code   RO          822    .ARM.Collect$$rtentry$$00000002  c_w.l(__rtentry2.o)
    0x08000304   0x08000304   0x00000006   Code   RO          834    .ARM.Collect$$rtentry$$00000004  c_w.l(__rtentry4.o)
    0x0800030a   0x0800030a   0x00000000   Code   RO          824    .ARM.Collect$$rtentry$$00000009  c_w.l(__rtentry2.o)
    0x0800030a   0x0800030a   0x00000004   Code   RO          825    .ARM.Collect$$rtentry$$0000000A  c_w.l(__rtentry2.o)
    0x0800030e   0x0800030e   0x00000000   Code   RO          827    .ARM.Collect$$rtentry$$0000000C  c_w.l(__rtentry2.o)
    0x0800030e   0x0800030e   0x00000008   Code   RO          828    .ARM.Collect$$rtentry$$0000000D  c_w.l(__rtentry2.o)
    0x08000316   0x08000316   0x00000002   Code   RO         1035    .ARM.Collect$$rtexit$$00000000  c_w.l(rtexit.o)
    0x08000318   0x08000318   0x00000000   Code   RO         1101    .ARM.Collect$$rtexit$$00000002  c_w.l(rtexit2.o)
    0x08000318   0x08000318   0x00000004   Code   RO         1102    .ARM.Collect$$rtexit$$00000003  c_w.l(rtexit2.o)
    0x0800031c   0x0800031c   0x00000006   Code   RO         1103    .ARM.Collect$$rtexit$$00000004  c_w.l(rtexit2.o)
    0x08000322   0x08000322   0x00000002   PAD
    0x08000324   0x08000324   0x00000034   Code   RO          634    .emb_text           c_w.l(rand.o)
    0x08000358   0x08000358   0x00000040   Code   RO          608  * .text               startup_stm32f446xx.o
    0x08000398   0x08000398   0x00000018   Code   RO          630    .text               c_w.l(printf.o)
    0x080003b0   0x080003b0   0x00000008   Code   RO          632    .text               c_w.l(abs.o)
    0x080003b8   0x080003b8   0x0000003c   Code   RO          635    .text               c_w.l(rand.o)
    0x080003f4   0x080003f4   0x0000003e   Code   RO          639    .text               c_w.l(strlen.o)
    0x08000432   0x08000432   0x00000006   PAD
    0x08000438   0x08000438   0x0000007c   Code   RO          641    .text               c_w.l(strcmpv7em.o)
    0x080004b4   0x080004b4   0x00000006   Code   RO          643    .text               c_w.l(heapauxi.o)
    0x080004ba   0x080004ba   0x0000004e   Code   RO          668    .text               c_w.l(_printf_pad.o)
    0x08000508   0x08000508   0x00000024   Code   RO          670    .text               c_w.l(_printf_truncate.o)
    0x0800052c   0x0800052c   0x00000052   Code   RO          672    .text               c_w.l(_printf_str.o)
    0x0800057e   0x0800057e   0x00000002   PAD
    0x08000580   0x08000580   0x00000078   Code   RO          674    .text               c_w.l(_printf_dec.o)
    0x080005f8   0x080005f8   0x00000028   Code   RO          676    .text               c_w.l(_printf_charcount.o)
    0x08000620   0x08000620   0x00000024   Code   RO          678    .text               c_w.l(_printf_char_file.o)
    0x08000644   0x08000644   0x000000bc   Code   RO          680    .text               c_w.l(_printf_wctomb.o)
    0x08000700   0x08000700   0x0000007c   Code   RO          683    .text               c_w.l(_printf_longlong_dec.o)
    0x0800077c   0x0800077c   0x00000070   Code   RO          689    .text               c_w.l(_printf_oct_int_ll.o)
    0x080007ec   0x080007ec   0x00000094   Code   RO          709    .text               c_w.l(_printf_hex_int_ll_ptr.o)
    0x08000880   0x08000880   0x00000188   Code   RO          729    .text               c_w.l(__printf_flags_ss_wp.o)
    0x08000a08   0x08000a08   0x0000008a   Code   RO          836    .text               c_w.l(lludiv10.o)
    0x08000a92   0x08000a92   0x000000b2   Code   RO          838    .text               c_w.l(_printf_intcommon.o)
    0x08000b44   0x08000b44   0x0000041c   Code   RO          840    .text               c_w.l(_printf_fp_dec.o)
    0x08000f60   0x08000f60   0x000002fc   Code   RO          844    .text               c_w.l(_printf_fp_hex.o)
    0x0800125c   0x0800125c   0x00000030   Code   RO          847    .text               c_w.l(_printf_char_common.o)
    0x0800128c   0x0800128c   0x0000002c   Code   RO          849    .text               c_w.l(_printf_char.o)
    0x080012b8   0x080012b8   0x0000002c   Code   RO          851    .text               c_w.l(_printf_wchar.o)
    0x080012e4   0x080012e4   0x00000008   Code   RO          854    .text               c_w.l(ferror.o)
    0x080012ec   0x080012ec   0x00000138   Code   RO          860    .text               c_w.l(initio.o)
    0x08001424   0x08001424   0x00000048   Code   RO          868    .text               c_w.l(_c16rtomb.o)
    0x0800146c   0x0800146c   0x0000004a   Code   RO          876    .text               c_w.l(sys_stackheap_outer.o)
    0x080014b6   0x080014b6   0x00000002   PAD
    0x080014b8   0x080014b8   0x00000010   Code   RO          878    .text               c_w.l(rt_ctype_table.o)
    0x080014c8   0x080014c8   0x00000008   Code   RO          883    .text               c_w.l(rt_locale_intlibspace.o)
    0x080014d0   0x080014d0   0x0000004e   Code   RO          887    .text               c_w.l(h1_free.o)
    0x0800151e   0x0800151e   0x00000002   PAD
    0x08001520   0x08001520   0x00000080   Code   RO          941    .text               c_w.l(_printf_fp_infnan.o)
    0x080015a0   0x080015a0   0x000000e4   Code   RO          945    .text               c_w.l(bigflt0.o)
    0x08001684   0x08001684   0x000001e2   Code   RO          972    .text               c_w.l(flsbuf.o)
    0x08001866   0x08001866   0x00000046   Code   RO          974    .text               c_w.l(setvbuf.o)
    0x080018ac   0x080018ac   0x000000f0   Code   RO          977    .text               c_w.l(fopen.o)
    0x0800199c   0x0800199c   0x0000004c   Code   RO          979    .text               c_w.l(fclose.o)
    0x080019e8   0x080019e8   0x00000012   Code   RO          988    .text               c_w.l(exit.o)
    0x080019fa   0x080019fa   0x0000000e   Code   RO          990    .text               c_w.l(defsig_rtred_outer.o)
    0x08001a08   0x08001a08   0x0000004e   Code   RO          994    .text               c_w.l(rt_memclr_w.o)
    0x08001a56   0x08001a56   0x00000002   PAD
    0x08001a58   0x08001a58   0x00000008   Code   RO         1032    .text               c_w.l(libspace.o)
    0x08001a60   0x08001a60   0x00000008   Code   RO         1042    .text               c_w.l(rt_heap_descriptor_intlibspace.o)
    0x08001a68   0x08001a68   0x00000004   Code   RO         1044    .text               c_w.l(hguard.o)
    0x08001a6c   0x08001a6c   0x0000008a   Code   RO         1048    .text               c_w.l(init_alloc.o)
    0x08001af6   0x08001af6   0x0000005e   Code   RO         1054    .text               c_w.l(h1_alloc.o)
    0x08001b54   0x08001b54   0x000000f8   Code   RO         1070    .text               c_w.l(fseek.o)
    0x08001c4c   0x08001c4c   0x00000108   Code   RO         1072    .text               c_w.l(stdio.o)
    0x08001d54   0x08001d54   0x0000000a   Code   RO         1081    .text               c_w.l(defsig_exit.o)
    0x08001d5e   0x08001d5e   0x00000002   PAD
    0x08001d60   0x08001d60   0x00000034   Code   RO         1083    .text               c_w.l(defsig_rtred_inner.o)
    0x08001d94   0x08001d94   0x0000000e   Code   RO         1085    .text               c_w.l(defsig_rtmem_outer.o)
    0x08001da2   0x08001da2   0x00000002   PAD
    0x08001da4   0x08001da4   0x0000000c   Code   RO         1093    .text               c_w.l(sys_exit.o)
    0x08001db0   0x08001db0   0x00000002   Code   RO         1097    .text               c_w.l(use_no_semi.o)
    0x08001db2   0x08001db2   0x00000000   Code   RO         1099    .text               c_w.l(indicate_semi.o)
    0x08001db2   0x08001db2   0x00000000   Code   RO         1107    .text               c_w.l(maybetermalloc1.o)
    0x08001db2   0x08001db2   0x0000000e   Code   RO         1109    .text               c_w.l(h1_init.o)
    0x08001dc0   0x08001dc0   0x00000034   Code   RO         1111    .text               c_w.l(h1_extend.o)
    0x08001df4   0x08001df4   0x00000042   Code   RO         1123    .text               c_w.l(ftell.o)
    0x08001e36   0x08001e36   0x00000032   Code   RO         1131    .text               c_w.l(defsig_general.o)
    0x08001e68   0x08001e68   0x00000050   Code   RO         1133    .text               c_w.l(defsig_rtmem_inner.o)
    0x08001eb8   0x08001eb8   0x0000000e   Code   RO         1142    .text               c_w.l(sys_wrch.o)
    0x08001ec6   0x08001ec6   0x00000002   PAD
    0x08001ec8   0x08001ec8   0x00000008   Code   RO         1149    .text               c_w.l(rt_errno_addr_intlibspace.o)
    0x08001ed0   0x08001ed0   0x00000022   Code   RO          555    .text.Buzzer_Stop   piezo.o
    0x08001ef2   0x08001ef2   0x00000002   PAD
    0x08001ef4   0x08001ef4   0x00000010   Code   RO           76    .text.CS_Low        spi.o
    0x08001f04   0x08001f04   0x0000048c   Code   RO           42    .text.Display_Init  ili9341.o
    0x08002390   0x08002390   0x000000a8   Code   RO           18    .text.Draw_Bitmap   ili9341.o
    0x08002438   0x08002438   0x00000172   Code   RO           10    .text.Draw_Char_BG  ili9341.o
    0x080025aa   0x080025aa   0x00000002   PAD
    0x080025ac   0x080025ac   0x00000046   Code   RO           16    .text.Draw_Pixel    ili9341.o
    0x080025f2   0x080025f2   0x00000002   PAD
    0x080025f4   0x080025f4   0x0000011c   Code   RO            8    .text.Draw_String_BG  ili9341.o
    0x08002710   0x08002710   0x0000006c   Code   RO           99    .text.EXTI15_10_IRQHandler  testmain.o
    0x0800277c   0x0800277c   0x000001fc   Code   RO          101    .text.EXTI4_IRQHandler  testmain.o
    0x08002978   0x08002978   0x0000006e   Code   RO          418    .text.Encoder_TIM_init  rotary_encoder.o
    0x080029e6   0x080029e6   0x00000002   PAD
    0x080029e8   0x080029e8   0x000000c2   Code   RO          420    .text.Encoder_init  rotary_encoder.o
    0x08002aaa   0x08002aaa   0x00000002   PAD
    0x08002aac   0x08002aac   0x00000012   Code   RO          461    .text.Eye_Move_To   servo.o
    0x08002abe   0x08002abe   0x00000002   PAD
    0x08002ac0   0x08002ac0   0x00000012   Code   RO          463    .text.Eyelid_Move_To  servo.o
    0x08002ad2   0x08002ad2   0x00000002   PAD
    0x08002ad4   0x08002ad4   0x000000aa   Code   RO           26    .text.Fill_Color    ili9341.o
    0x08002b7e   0x08002b7e   0x00000002   PAD
    0x08002b80   0x08002b80   0x0000010c   Code   RO           46    .text.Fill_Rect     ili9341.o
    0x08002c8c   0x08002c8c   0x00000058   Code   RO           24    .text.Fill_Screen   ili9341.o
    0x08002ce4   0x08002ce4   0x0000005e   Code   RO           44    .text.GPIO_PinMode_Setup  ili9341.o
    0x08002d42   0x08002d42   0x00000002   PAD
    0x08002d44   0x08002d44   0x00000086   Code   RO          506    .text.HealthClear   health_bar.o
    0x08002dca   0x08002dca   0x00000002   PAD
    0x08002dcc   0x08002dcc   0x00000098   Code   RO          504    .text.HealthCurrent  health_bar.o
    0x08002e64   0x08002e64   0x000000c6   Code   RO          508    .text.HealthMinusMinus  health_bar.o
    0x08002f2a   0x08002f2a   0x00000002   PAD
    0x08002f2c   0x08002f2c   0x000000cc   Code   RO          510    .text.HealthPlusPlus  health_bar.o
    0x08002ff8   0x08002ff8   0x0000014c   Code   RO          409    .text.I2C1_byteRead  i2c.o
    0x08003144   0x08003144   0x000000ee   Code   RO          407    .text.I2C1_byteWrite  i2c.o
    0x08003232   0x08003232   0x00000002   PAD
    0x08003234   0x08003234   0x000000a4   Code   RO          405    .text.I2C_init      i2c.o
    0x080032d8   0x080032d8   0x00000040   Code   RO           38    .text.ILI_8Bit_Command  ili9341.o
    0x08003318   0x08003318   0x00000040   Code   RO           22    .text.ILI_8Bit_Data  ili9341.o
    0x08003358   0x08003358   0x0000001c   Code   RO           30    .text.ILI_Push_16Bit  ili9341.o
    0x08003374   0x08003374   0x00000042   Code   RO          570    .text.ITM_SendChar  retarget_io.o
    0x080033b6   0x080033b6   0x00000002   PAD
    0x080033b8   0x080033b8   0x00000084   Code   RO          526    .text.Init_seq      sevenseg.o
    0x0800343c   0x0800343c   0x0000075e   Code   RO           97    .text.MENU_SCREENS  testmain.o
    0x08003b9a   0x08003b9a   0x00000002   PAD
    0x08003b9c   0x08003b9c   0x00000018   Code   RO          547    .text.Play_Tone_1   piezo.o
    0x08003bb4   0x08003bb4   0x0000001a   Code   RO          549    .text.Play_Tone_2   piezo.o
    0x08003bce   0x08003bce   0x00000002   PAD
    0x08003bd0   0x08003bd0   0x0000001a   Code   RO          551    .text.Play_Tone_3   piezo.o
    0x08003bea   0x08003bea   0x00000002   PAD
    0x08003bec   0x08003bec   0x0000001a   Code   RO          553    .text.Play_Tone_4   piezo.o
    0x08003c06   0x08003c06   0x00000002   PAD
    0x08003c08   0x08003c08   0x00000100   Code   RO          491    .text.Read_ADC      adc.o
    0x08003d08   0x08003d08   0x00000166   Code   RO          107    .text.Read_Date     testmain.o
    0x08003e6e   0x08003e6e   0x00000002   PAD
    0x08003e70   0x08003e70   0x00000166   Code   RO          109    .text.Read_Time     testmain.o
    0x08003fd6   0x08003fd6   0x00000002   PAD
    0x08003fd8   0x08003fd8   0x0000015a   Code   RO           40    .text.Rotate_Display  ili9341.o
    0x08004132   0x08004132   0x00000002   PAD
    0x08004134   0x08004134   0x00000012   Code   RO           74    .text.SPI_Enable    spi.o
    0x08004146   0x08004146   0x00000002   PAD
    0x08004148   0x08004148   0x000000bc   Code   RO           72    .text.SPI_GPIO      spi.o
    0x08004204   0x08004204   0x00000058   Code   RO           70    .text.SPI_Init      spi.o
    0x0800425c   0x0800425c   0x0000009e   Code   RO           80    .text.SPI_Transmit  spi.o
    0x080042fa   0x080042fa   0x00000002   PAD
    0x080042fc   0x080042fc   0x0000004a   Code   RO           20    .text.Set_Address_Window  ili9341.o
    0x08004346   0x08004346   0x00000002   PAD
    0x08004348   0x08004348   0x0000003a   Code   RO          105    .text.Set_Date      testmain.o
    0x08004382   0x08004382   0x00000002   PAD
    0x08004384   0x08004384   0x000002f0   Code   RO          111    .text.Set_TD        testmain.o
    0x08004674   0x08004674   0x0000003a   Code   RO          103    .text.Set_Time      testmain.o
    0x080046ae   0x080046ae   0x00000002   PAD
    0x080046b0   0x080046b0   0x0000002e   Code   RO            2    .text.SysTick_Init  ili9341.o
    0x080046de   0x080046de   0x00000002   PAD
    0x080046e0   0x080046e0   0x00000012   Code   RO          615    .text.SystemInit    system_stm32f4xx.o
    0x080046f2   0x080046f2   0x00000002   PAD
    0x080046f4   0x080046f4   0x00000010   Code   RO          473    .text.TIM1_CH1_Disable  servo.o
    0x08004704   0x08004704   0x00000010   Code   RO          467    .text.TIM1_CH1_Enable  servo.o
    0x08004714   0x08004714   0x00000010   Code   RO          475    .text.TIM1_CH2_Disable  servo.o
    0x08004724   0x08004724   0x00000010   Code   RO          469    .text.TIM1_CH2_Enable  servo.o
    0x08004734   0x08004734   0x00000010   Code   RO          477    .text.TIM1_CH3_Disable  servo.o
    0x08004744   0x08004744   0x00000010   Code   RO          471    .text.TIM1_CH3_Enable  servo.o
    0x08004754   0x08004754   0x000000e6   Code   RO          453    .text.TIM1_setup    servo.o
    0x0800483a   0x0800483a   0x00000002   PAD
    0x0800483c   0x0800483c   0x00000114   Code   RO          113    .text.TIM5_IRQHandler  testmain.o
    0x08004950   0x08004950   0x0000008e   Code   RO          479    .text.TIM6_DAC_IRQHandler  servo.o
    0x080049de   0x080049de   0x00000002   PAD
    0x080049e0   0x080049e0   0x000001f0   Code   RO          557    .text.TIM7_IRQHandler  piezo.o
    0x08004bd0   0x08004bd0   0x0000007e   Code   RO          455    .text.TIM_GPIO      servo.o
    0x08004c4e   0x08004c4e   0x00000002   PAD
    0x08004c50   0x08004c50   0x0000006c   Code   RO          457    .text.Timer6_Init   servo.o
    0x08004cbc   0x08004cbc   0x0000006e   Code   RO          539    .text.Timer7_Init   piezo.o
    0x08004d2a   0x08004d2a   0x00000002   PAD
    0x08004d2c   0x08004d2c   0x000000e4   Code   RO          545    .text.Timer8_Init   piezo.o
    0x08004e10   0x08004e10   0x00000012   Code   RO          465    .text.Tongue_Move_To  servo.o
    0x08004e22   0x08004e22   0x00000002   PAD
    0x08004e24   0x08004e24   0x00000040   Code   RO           93    .text.WDT_init      testmain.o
    0x08004e64   0x08004e64   0x00000014   Code   RO           95    .text.WDT_reset     testmain.o
    0x08004e78   0x08004e78   0x00000030   Code   RO          371    .text.__NVIC_EnableIRQ  hall.o
    0x08004ea8   0x08004ea8   0x00000030   Code   RO          422    .text.__NVIC_EnableIRQ  rotary_encoder.o
    0x08004ed8   0x08004ed8   0x00000030   Code   RO          459    .text.__NVIC_EnableIRQ  servo.o
    0x08004f08   0x08004f08   0x00000030   Code   RO          516    .text.__NVIC_EnableIRQ  health_bar.o
    0x08004f38   0x08004f38   0x00000030   Code   RO          541    .text.__NVIC_EnableIRQ  piezo.o
    0x08004f68   0x08004f68   0x0000004a   Code   RO          576    .text._sys_close    retarget_io.o
    0x08004fb2   0x08004fb2   0x00000002   PAD
    0x08004fb4   0x08004fb4   0x00000048   Code   RO          592    .text._sys_flen     retarget_io.o
    0x08004ffc   0x08004ffc   0x00000048   Code   RO          588    .text._sys_istty    retarget_io.o
    0x08005044   0x08005044   0x00000084   Code   RO          574    .text._sys_open     retarget_io.o
    0x080050c8   0x080050c8   0x00000052   Code   RO          590    .text._sys_seek     retarget_io.o
    0x0800511a   0x0800511a   0x00000002   PAD
    0x0800511c   0x0800511c   0x00000098   Code   RO          578    .text._sys_write    retarget_io.o
    0x080051b4   0x080051b4   0x00000086   Code   RO          489    .text.adc_init      adc.o
    0x0800523a   0x0800523a   0x00000002   PAD
    0x0800523c   0x0800523c   0x00000042   Code   RO            4    .text.delayMS       ili9341.o
    0x0800527e   0x0800527e   0x00000002   PAD
    0x08005280   0x08005280   0x00000042   Code   RO            6    .text.delayMicroS   ili9341.o
    0x080052c2   0x080052c2   0x00000002   PAD
    0x080052c4   0x080052c4   0x00000066   Code   RO          441    .text.dist          sonar.o
    0x0800532a   0x0800532a   0x00000002   PAD
    0x0800532c   0x0800532c   0x000000c2   Code   RO          369    .text.hallEffect_pinInit  hall.o
    0x080053ee   0x080053ee   0x00000002   PAD
    0x080053f0   0x080053f0   0x0000006a   Code   RO          502    .text.init_ShiftRegister  health_bar.o
    0x0800545a   0x0800545a   0x00000002   PAD
    0x0800545c   0x0800545c   0x00000696   Code   RO           91    .text.main          testmain.o
    0x08005af2   0x08005af2   0x00000002   PAD
    0x08005af4   0x08005af4   0x0000000e   Code   RO          559    .text.millis        piezo.o
    0x08005b02   0x08005b02   0x00000002   PAD
    0x08005b04   0x08005b04   0x0000008c   Code   RO          528    .text.sevenSeg_write  sevenseg.o
    0x08005b90   0x08005b90   0x00000134   Code   RO          439    .text.sonar_gpio_init  sonar.o
    0x08005cc4   0x08005cc4   0x00000010   Code   RO          582    .text.stderr_putchar  retarget_io.o
    0x08005cd4   0x08005cd4   0x00000010   Code   RO          580    .text.stdout_putchar  retarget_io.o
    0x08005ce4   0x08005ce4   0x00000082   Code   RO          388    .text.stepper_init  stepper.o
    0x08005d66   0x08005d66   0x00000002   PAD
    0x08005d68   0x08005d68   0x0000006a   Code   RO          514    .text.tim5_init     health_bar.o
    0x08005dd2   0x08005dd2   0x0000003e   Code   RO          948    CL$$btod_d2e        c_w.l(btod.o)
    0x08005e10   0x08005e10   0x00000046   Code   RO          950    CL$$btod_d2e_denorm_low  c_w.l(btod.o)
    0x08005e56   0x08005e56   0x00000060   Code   RO          949    CL$$btod_d2e_norm_op1  c_w.l(btod.o)
    0x08005eb6   0x08005eb6   0x00000002   PAD
    0x08005eb8   0x08005eb8   0x00000338   Code   RO          958    CL$$btod_div_common  c_w.l(btod.o)
    0x080061f0   0x080061f0   0x000000dc   Code   RO          955    CL$$btod_e2e        c_w.l(btod.o)
    0x080062cc   0x080062cc   0x0000002a   Code   RO          952    CL$$btod_ediv       c_w.l(btod.o)
    0x080062f6   0x080062f6   0x0000002a   Code   RO          951    CL$$btod_emul       c_w.l(btod.o)
    0x08006320   0x08006320   0x00000244   Code   RO          957    CL$$btod_mult_common  c_w.l(btod.o)
    0x08006564   0x08006564   0x00000030   Code   RO         1026    i.__ARM_fpclassify  m_wm.l(fpclassify.o)
    0x08006594   0x08006594   0x0000000e   Code   RO          722    i._is_digit         c_w.l(__printf_wp.o)
    0x080065a2   0x080065a2   0x0000001c   Code   RO          857    i.fputc             c_w.l(fputc.o)
    0x080065be   0x080065be   0x00000002   PAD
    0x080065c0   0x080065c0   0x0000002c   Code   RO          986    locale$$code        c_w.l(lc_numeric_c.o)
    0x080065ec   0x080065ec   0x0000002c   Code   RO         1079    locale$$code        c_w.l(lc_ctype_c.o)
    0x08006618   0x08006618   0x00000150   Code   RO          647    x$fpl$dadd          fz_wm.l(daddsub_clz.o)
    0x08006768   0x08006768   0x0000005e   Code   RO          653    x$fpl$dfix          fz_wm.l(dfix.o)
    0x080067c6   0x080067c6   0x0000002e   Code   RO          658    x$fpl$dflt          fz_wm.l(dflt_clz.o)
    0x080067f4   0x080067f4   0x00000154   Code   RO          663    x$fpl$dmul          fz_wm.l(dmul.o)
    0x08006948   0x08006948   0x0000009c   Code   RO          808    x$fpl$dnaninf       fz_wm.l(dnaninf.o)
    0x080069e4   0x080069e4   0x0000000c   Code   RO          810    x$fpl$dretinf       fz_wm.l(dretinf.o)
    0x080069f0   0x080069f0   0x000001dc   Code   RO          649    x$fpl$dsub          fz_wm.l(daddsub_clz.o)
    0x08006bcc   0x08006bcc   0x0000001a   Code   RO          872    x$fpl$fpinit        fz_wm.l(fpinit.o)
    0x08006be6   0x08006be6   0x00000004   Code   RO          812    x$fpl$printf1       fz_wm.l(printf1.o)
    0x08006bea   0x08006bea   0x00000004   Code   RO          814    x$fpl$printf2       fz_wm.l(printf2.o)
    0x08006bee   0x08006bee   0x00000000   Code   RO          820    x$fpl$usenofp       fz_wm.l(usenofp.o)
    0x08006bee   0x08006bee   0x00000002   PAD
    0x08006bf0   0x08006bf0   0x00000008   Data   RO          681    .constdata          c_w.l(_printf_wctomb.o)
    0x08006bf8   0x08006bf8   0x00000028   Data   RO          710    .constdata          c_w.l(_printf_hex_int_ll_ptr.o)
    0x08006c20   0x08006c20   0x00000011   Data   RO          730    .constdata          c_w.l(__printf_flags_ss_wp.o)
    0x08006c31   0x08006c31   0x00000026   Data   RO          845    .constdata          c_w.l(_printf_fp_hex.o)
    0x08006c57   0x08006c57   0x00000001   PAD
    0x08006c58   0x08006c58   0x00000094   Data   RO          946    .constdata          c_w.l(bigflt0.o)
    0x08006cec   0x08006cec   0x000149b0   Data   RO          119    .rodata.Happy       testmain.o
    0x0801b69c   0x0801b69c   0x0000000c   Data   RO          124    .rodata.HappyImage  testmain.o
    0x0801b6a8   0x0801b6a8   0x000156bc   Data   RO          121    .rodata.Hungry      testmain.o
    0x08030d64   0x08030d64   0x0000000c   Data   RO          125    .rodata.HungryImage  testmain.o
    0x08030d70   0x08030d70   0x00014664   Data   RO          122    .rodata.Sleepy      testmain.o
    0x080453d4   0x080453d4   0x0000000c   Data   RO          126    .rodata.SleepyImage  testmain.o
    0x080453e0   0x080453e0   0x00000008   Data   RO          597    .rodata.__stderr_name  retarget_io.o
    0x080453e8   0x080453e8   0x00000007   Data   RO          595    .rodata.__stdin_name  retarget_io.o
    0x080453ef   0x080453ef   0x00000008   Data   RO          596    .rodata.__stdout_name  retarget_io.o
    0x080453f7   0x080453f7   0x00000001   PAD
    0x080453f8   0x080453f8   0x0001480a   Data   RO          120    .rodata.content     testmain.o
    0x08059c02   0x08059c02   0x00000002   PAD
    0x08059c04   0x08059c04   0x0000000c   Data   RO          123    .rodata.contentImage  testmain.o
    0x08059c10   0x08059c10   0x00000008   Data   RO          163    .rodata.font_ubuntu_mono_24  testmain.o
    0x08059c18   0x08059c18   0x0000000c   Data   RO          171    .rodata.font_ubuntu_mono_24_0x20  testmain.o
    0x08059c24   0x08059c24   0x0000000c   Data   RO          172    .rodata.font_ubuntu_mono_24_0x21  testmain.o
    0x08059c30   0x08059c30   0x0000000c   Data   RO          173    .rodata.font_ubuntu_mono_24_0x22  testmain.o
    0x08059c3c   0x08059c3c   0x0000000c   Data   RO          174    .rodata.font_ubuntu_mono_24_0x23  testmain.o
    0x08059c48   0x08059c48   0x0000000c   Data   RO          175    .rodata.font_ubuntu_mono_24_0x24  testmain.o
    0x08059c54   0x08059c54   0x0000000c   Data   RO          176    .rodata.font_ubuntu_mono_24_0x25  testmain.o
    0x08059c60   0x08059c60   0x0000000c   Data   RO          177    .rodata.font_ubuntu_mono_24_0x26  testmain.o
    0x08059c6c   0x08059c6c   0x0000000c   Data   RO          178    .rodata.font_ubuntu_mono_24_0x27  testmain.o
    0x08059c78   0x08059c78   0x0000000c   Data   RO          179    .rodata.font_ubuntu_mono_24_0x28  testmain.o
    0x08059c84   0x08059c84   0x0000000c   Data   RO          180    .rodata.font_ubuntu_mono_24_0x29  testmain.o
    0x08059c90   0x08059c90   0x0000000c   Data   RO          181    .rodata.font_ubuntu_mono_24_0x2a  testmain.o
    0x08059c9c   0x08059c9c   0x0000000c   Data   RO          182    .rodata.font_ubuntu_mono_24_0x2b  testmain.o
    0x08059ca8   0x08059ca8   0x0000000c   Data   RO          183    .rodata.font_ubuntu_mono_24_0x2c  testmain.o
    0x08059cb4   0x08059cb4   0x0000000c   Data   RO          184    .rodata.font_ubuntu_mono_24_0x2d  testmain.o
    0x08059cc0   0x08059cc0   0x0000000c   Data   RO          185    .rodata.font_ubuntu_mono_24_0x2e  testmain.o
    0x08059ccc   0x08059ccc   0x0000000c   Data   RO          186    .rodata.font_ubuntu_mono_24_0x2f  testmain.o
    0x08059cd8   0x08059cd8   0x0000000c   Data   RO          187    .rodata.font_ubuntu_mono_24_0x30  testmain.o
    0x08059ce4   0x08059ce4   0x0000000c   Data   RO          188    .rodata.font_ubuntu_mono_24_0x31  testmain.o
    0x08059cf0   0x08059cf0   0x0000000c   Data   RO          189    .rodata.font_ubuntu_mono_24_0x32  testmain.o
    0x08059cfc   0x08059cfc   0x0000000c   Data   RO          190    .rodata.font_ubuntu_mono_24_0x33  testmain.o
    0x08059d08   0x08059d08   0x0000000c   Data   RO          191    .rodata.font_ubuntu_mono_24_0x34  testmain.o
    0x08059d14   0x08059d14   0x0000000c   Data   RO          192    .rodata.font_ubuntu_mono_24_0x35  testmain.o
    0x08059d20   0x08059d20   0x0000000c   Data   RO          193    .rodata.font_ubuntu_mono_24_0x36  testmain.o
    0x08059d2c   0x08059d2c   0x0000000c   Data   RO          194    .rodata.font_ubuntu_mono_24_0x37  testmain.o
    0x08059d38   0x08059d38   0x0000000c   Data   RO          195    .rodata.font_ubuntu_mono_24_0x38  testmain.o
    0x08059d44   0x08059d44   0x0000000c   Data   RO          196    .rodata.font_ubuntu_mono_24_0x39  testmain.o
    0x08059d50   0x08059d50   0x0000000c   Data   RO          197    .rodata.font_ubuntu_mono_24_0x3a  testmain.o
    0x08059d5c   0x08059d5c   0x0000000c   Data   RO          198    .rodata.font_ubuntu_mono_24_0x3b  testmain.o
    0x08059d68   0x08059d68   0x0000000c   Data   RO          199    .rodata.font_ubuntu_mono_24_0x3c  testmain.o
    0x08059d74   0x08059d74   0x0000000c   Data   RO          200    .rodata.font_ubuntu_mono_24_0x3d  testmain.o
    0x08059d80   0x08059d80   0x0000000c   Data   RO          201    .rodata.font_ubuntu_mono_24_0x3e  testmain.o
    0x08059d8c   0x08059d8c   0x0000000c   Data   RO          202    .rodata.font_ubuntu_mono_24_0x3f  testmain.o
    0x08059d98   0x08059d98   0x0000000c   Data   RO          203    .rodata.font_ubuntu_mono_24_0x40  testmain.o
    0x08059da4   0x08059da4   0x0000000c   Data   RO          204    .rodata.font_ubuntu_mono_24_0x41  testmain.o
    0x08059db0   0x08059db0   0x0000000c   Data   RO          205    .rodata.font_ubuntu_mono_24_0x42  testmain.o
    0x08059dbc   0x08059dbc   0x0000000c   Data   RO          206    .rodata.font_ubuntu_mono_24_0x43  testmain.o
    0x08059dc8   0x08059dc8   0x0000000c   Data   RO          207    .rodata.font_ubuntu_mono_24_0x44  testmain.o
    0x08059dd4   0x08059dd4   0x0000000c   Data   RO          208    .rodata.font_ubuntu_mono_24_0x45  testmain.o
    0x08059de0   0x08059de0   0x0000000c   Data   RO          209    .rodata.font_ubuntu_mono_24_0x46  testmain.o
    0x08059dec   0x08059dec   0x0000000c   Data   RO          210    .rodata.font_ubuntu_mono_24_0x47  testmain.o
    0x08059df8   0x08059df8   0x0000000c   Data   RO          211    .rodata.font_ubuntu_mono_24_0x48  testmain.o
    0x08059e04   0x08059e04   0x0000000c   Data   RO          212    .rodata.font_ubuntu_mono_24_0x49  testmain.o
    0x08059e10   0x08059e10   0x0000000c   Data   RO          213    .rodata.font_ubuntu_mono_24_0x4a  testmain.o
    0x08059e1c   0x08059e1c   0x0000000c   Data   RO          214    .rodata.font_ubuntu_mono_24_0x4b  testmain.o
    0x08059e28   0x08059e28   0x0000000c   Data   RO          215    .rodata.font_ubuntu_mono_24_0x4c  testmain.o
    0x08059e34   0x08059e34   0x0000000c   Data   RO          216    .rodata.font_ubuntu_mono_24_0x4d  testmain.o
    0x08059e40   0x08059e40   0x0000000c   Data   RO          217    .rodata.font_ubuntu_mono_24_0x4e  testmain.o
    0x08059e4c   0x08059e4c   0x0000000c   Data   RO          218    .rodata.font_ubuntu_mono_24_0x4f  testmain.o
    0x08059e58   0x08059e58   0x0000000c   Data   RO          219    .rodata.font_ubuntu_mono_24_0x50  testmain.o
    0x08059e64   0x08059e64   0x0000000c   Data   RO          220    .rodata.font_ubuntu_mono_24_0x51  testmain.o
    0x08059e70   0x08059e70   0x0000000c   Data   RO          221    .rodata.font_ubuntu_mono_24_0x52  testmain.o
    0x08059e7c   0x08059e7c   0x0000000c   Data   RO          222    .rodata.font_ubuntu_mono_24_0x53  testmain.o
    0x08059e88   0x08059e88   0x0000000c   Data   RO          223    .rodata.font_ubuntu_mono_24_0x54  testmain.o
    0x08059e94   0x08059e94   0x0000000c   Data   RO          224    .rodata.font_ubuntu_mono_24_0x55  testmain.o
    0x08059ea0   0x08059ea0   0x0000000c   Data   RO          225    .rodata.font_ubuntu_mono_24_0x56  testmain.o
    0x08059eac   0x08059eac   0x0000000c   Data   RO          226    .rodata.font_ubuntu_mono_24_0x57  testmain.o
    0x08059eb8   0x08059eb8   0x0000000c   Data   RO          227    .rodata.font_ubuntu_mono_24_0x58  testmain.o
    0x08059ec4   0x08059ec4   0x0000000c   Data   RO          228    .rodata.font_ubuntu_mono_24_0x59  testmain.o
    0x08059ed0   0x08059ed0   0x0000000c   Data   RO          229    .rodata.font_ubuntu_mono_24_0x5a  testmain.o
    0x08059edc   0x08059edc   0x0000000c   Data   RO          230    .rodata.font_ubuntu_mono_24_0x5b  testmain.o
    0x08059ee8   0x08059ee8   0x0000000c   Data   RO          231    .rodata.font_ubuntu_mono_24_0x5c  testmain.o
    0x08059ef4   0x08059ef4   0x0000000c   Data   RO          232    .rodata.font_ubuntu_mono_24_0x5d  testmain.o
    0x08059f00   0x08059f00   0x0000000c   Data   RO          233    .rodata.font_ubuntu_mono_24_0x5e  testmain.o
    0x08059f0c   0x08059f0c   0x0000000c   Data   RO          234    .rodata.font_ubuntu_mono_24_0x5f  testmain.o
    0x08059f18   0x08059f18   0x0000000c   Data   RO          235    .rodata.font_ubuntu_mono_24_0x60  testmain.o
    0x08059f24   0x08059f24   0x0000000c   Data   RO          236    .rodata.font_ubuntu_mono_24_0x61  testmain.o
    0x08059f30   0x08059f30   0x0000000c   Data   RO          237    .rodata.font_ubuntu_mono_24_0x62  testmain.o
    0x08059f3c   0x08059f3c   0x0000000c   Data   RO          238    .rodata.font_ubuntu_mono_24_0x63  testmain.o
    0x08059f48   0x08059f48   0x0000000c   Data   RO          239    .rodata.font_ubuntu_mono_24_0x64  testmain.o
    0x08059f54   0x08059f54   0x0000000c   Data   RO          240    .rodata.font_ubuntu_mono_24_0x65  testmain.o
    0x08059f60   0x08059f60   0x0000000c   Data   RO          241    .rodata.font_ubuntu_mono_24_0x66  testmain.o
    0x08059f6c   0x08059f6c   0x0000000c   Data   RO          242    .rodata.font_ubuntu_mono_24_0x67  testmain.o
    0x08059f78   0x08059f78   0x0000000c   Data   RO          243    .rodata.font_ubuntu_mono_24_0x68  testmain.o
    0x08059f84   0x08059f84   0x0000000c   Data   RO          244    .rodata.font_ubuntu_mono_24_0x69  testmain.o
    0x08059f90   0x08059f90   0x0000000c   Data   RO          245    .rodata.font_ubuntu_mono_24_0x6a  testmain.o
    0x08059f9c   0x08059f9c   0x0000000c   Data   RO          246    .rodata.font_ubuntu_mono_24_0x6b  testmain.o
    0x08059fa8   0x08059fa8   0x0000000c   Data   RO          247    .rodata.font_ubuntu_mono_24_0x6c  testmain.o
    0x08059fb4   0x08059fb4   0x0000000c   Data   RO          248    .rodata.font_ubuntu_mono_24_0x6d  testmain.o
    0x08059fc0   0x08059fc0   0x0000000c   Data   RO          249    .rodata.font_ubuntu_mono_24_0x6e  testmain.o
    0x08059fcc   0x08059fcc   0x0000000c   Data   RO          250    .rodata.font_ubuntu_mono_24_0x6f  testmain.o
    0x08059fd8   0x08059fd8   0x0000000c   Data   RO          251    .rodata.font_ubuntu_mono_24_0x70  testmain.o
    0x08059fe4   0x08059fe4   0x0000000c   Data   RO          252    .rodata.font_ubuntu_mono_24_0x71  testmain.o
    0x08059ff0   0x08059ff0   0x0000000c   Data   RO          253    .rodata.font_ubuntu_mono_24_0x72  testmain.o
    0x08059ffc   0x08059ffc   0x0000000c   Data   RO          254    .rodata.font_ubuntu_mono_24_0x73  testmain.o
    0x0805a008   0x0805a008   0x0000000c   Data   RO          255    .rodata.font_ubuntu_mono_24_0x74  testmain.o
    0x0805a014   0x0805a014   0x0000000c   Data   RO          256    .rodata.font_ubuntu_mono_24_0x75  testmain.o
    0x0805a020   0x0805a020   0x0000000c   Data   RO          257    .rodata.font_ubuntu_mono_24_0x76  testmain.o
    0x0805a02c   0x0805a02c   0x0000000c   Data   RO          258    .rodata.font_ubuntu_mono_24_0x77  testmain.o
    0x0805a038   0x0805a038   0x0000000c   Data   RO          259    .rodata.font_ubuntu_mono_24_0x78  testmain.o
    0x0805a044   0x0805a044   0x0000000c   Data   RO          260    .rodata.font_ubuntu_mono_24_0x79  testmain.o
    0x0805a050   0x0805a050   0x0000000c   Data   RO          261    .rodata.font_ubuntu_mono_24_0x7a  testmain.o
    0x0805a05c   0x0805a05c   0x0000000c   Data   RO          262    .rodata.font_ubuntu_mono_24_0x7b  testmain.o
    0x0805a068   0x0805a068   0x0000000c   Data   RO          263    .rodata.font_ubuntu_mono_24_0x7c  testmain.o
    0x0805a074   0x0805a074   0x0000000c   Data   RO          264    .rodata.font_ubuntu_mono_24_0x7d  testmain.o
    0x0805a080   0x0805a080   0x0000000c   Data   RO          265    .rodata.font_ubuntu_mono_24_0x7e  testmain.o
    0x0805a08c   0x0805a08c   0x000002f8   Data   RO          170    .rodata.font_ubuntu_mono_24_array  testmain.o
    0x0805a384   0x0805a384   0x00000030   Data   RO          266    .rodata.image_data_font_ubuntu_mono_24_0x20  testmain.o
    0x0805a3b4   0x0805a3b4   0x00000030   Data   RO          267    .rodata.image_data_font_ubuntu_mono_24_0x21  testmain.o
    0x0805a3e4   0x0805a3e4   0x00000030   Data   RO          268    .rodata.image_data_font_ubuntu_mono_24_0x22  testmain.o
    0x0805a414   0x0805a414   0x00000030   Data   RO          269    .rodata.image_data_font_ubuntu_mono_24_0x23  testmain.o
    0x0805a444   0x0805a444   0x00000030   Data   RO          270    .rodata.image_data_font_ubuntu_mono_24_0x24  testmain.o
    0x0805a474   0x0805a474   0x00000030   Data   RO          271    .rodata.image_data_font_ubuntu_mono_24_0x25  testmain.o
    0x0805a4a4   0x0805a4a4   0x00000030   Data   RO          272    .rodata.image_data_font_ubuntu_mono_24_0x26  testmain.o
    0x0805a4d4   0x0805a4d4   0x00000030   Data   RO          273    .rodata.image_data_font_ubuntu_mono_24_0x27  testmain.o
    0x0805a504   0x0805a504   0x00000030   Data   RO          274    .rodata.image_data_font_ubuntu_mono_24_0x28  testmain.o
    0x0805a534   0x0805a534   0x00000030   Data   RO          275    .rodata.image_data_font_ubuntu_mono_24_0x29  testmain.o
    0x0805a564   0x0805a564   0x00000030   Data   RO          276    .rodata.image_data_font_ubuntu_mono_24_0x2a  testmain.o
    0x0805a594   0x0805a594   0x00000030   Data   RO          277    .rodata.image_data_font_ubuntu_mono_24_0x2b  testmain.o
    0x0805a5c4   0x0805a5c4   0x00000030   Data   RO          278    .rodata.image_data_font_ubuntu_mono_24_0x2c  testmain.o
    0x0805a5f4   0x0805a5f4   0x00000030   Data   RO          279    .rodata.image_data_font_ubuntu_mono_24_0x2d  testmain.o
    0x0805a624   0x0805a624   0x00000030   Data   RO          280    .rodata.image_data_font_ubuntu_mono_24_0x2e  testmain.o
    0x0805a654   0x0805a654   0x00000030   Data   RO          281    .rodata.image_data_font_ubuntu_mono_24_0x2f  testmain.o
    0x0805a684   0x0805a684   0x00000030   Data   RO          282    .rodata.image_data_font_ubuntu_mono_24_0x30  testmain.o
    0x0805a6b4   0x0805a6b4   0x00000030   Data   RO          283    .rodata.image_data_font_ubuntu_mono_24_0x31  testmain.o
    0x0805a6e4   0x0805a6e4   0x00000030   Data   RO          284    .rodata.image_data_font_ubuntu_mono_24_0x32  testmain.o
    0x0805a714   0x0805a714   0x00000030   Data   RO          285    .rodata.image_data_font_ubuntu_mono_24_0x33  testmain.o
    0x0805a744   0x0805a744   0x00000030   Data   RO          286    .rodata.image_data_font_ubuntu_mono_24_0x34  testmain.o
    0x0805a774   0x0805a774   0x00000030   Data   RO          287    .rodata.image_data_font_ubuntu_mono_24_0x35  testmain.o
    0x0805a7a4   0x0805a7a4   0x00000030   Data   RO          288    .rodata.image_data_font_ubuntu_mono_24_0x36  testmain.o
    0x0805a7d4   0x0805a7d4   0x00000030   Data   RO          289    .rodata.image_data_font_ubuntu_mono_24_0x37  testmain.o
    0x0805a804   0x0805a804   0x00000030   Data   RO          290    .rodata.image_data_font_ubuntu_mono_24_0x38  testmain.o
    0x0805a834   0x0805a834   0x00000030   Data   RO          291    .rodata.image_data_font_ubuntu_mono_24_0x39  testmain.o
    0x0805a864   0x0805a864   0x00000030   Data   RO          292    .rodata.image_data_font_ubuntu_mono_24_0x3a  testmain.o
    0x0805a894   0x0805a894   0x00000030   Data   RO          293    .rodata.image_data_font_ubuntu_mono_24_0x3b  testmain.o
    0x0805a8c4   0x0805a8c4   0x00000030   Data   RO          294    .rodata.image_data_font_ubuntu_mono_24_0x3c  testmain.o
    0x0805a8f4   0x0805a8f4   0x00000030   Data   RO          295    .rodata.image_data_font_ubuntu_mono_24_0x3d  testmain.o
    0x0805a924   0x0805a924   0x00000030   Data   RO          296    .rodata.image_data_font_ubuntu_mono_24_0x3e  testmain.o
    0x0805a954   0x0805a954   0x00000030   Data   RO          297    .rodata.image_data_font_ubuntu_mono_24_0x3f  testmain.o
    0x0805a984   0x0805a984   0x00000030   Data   RO          298    .rodata.image_data_font_ubuntu_mono_24_0x40  testmain.o
    0x0805a9b4   0x0805a9b4   0x00000030   Data   RO          299    .rodata.image_data_font_ubuntu_mono_24_0x41  testmain.o
    0x0805a9e4   0x0805a9e4   0x00000030   Data   RO          300    .rodata.image_data_font_ubuntu_mono_24_0x42  testmain.o
    0x0805aa14   0x0805aa14   0x00000030   Data   RO          301    .rodata.image_data_font_ubuntu_mono_24_0x43  testmain.o
    0x0805aa44   0x0805aa44   0x00000030   Data   RO          302    .rodata.image_data_font_ubuntu_mono_24_0x44  testmain.o
    0x0805aa74   0x0805aa74   0x00000030   Data   RO          303    .rodata.image_data_font_ubuntu_mono_24_0x45  testmain.o
    0x0805aaa4   0x0805aaa4   0x00000030   Data   RO          304    .rodata.image_data_font_ubuntu_mono_24_0x46  testmain.o
    0x0805aad4   0x0805aad4   0x00000030   Data   RO          305    .rodata.image_data_font_ubuntu_mono_24_0x47  testmain.o
    0x0805ab04   0x0805ab04   0x00000030   Data   RO          306    .rodata.image_data_font_ubuntu_mono_24_0x48  testmain.o
    0x0805ab34   0x0805ab34   0x00000030   Data   RO          307    .rodata.image_data_font_ubuntu_mono_24_0x49  testmain.o
    0x0805ab64   0x0805ab64   0x00000030   Data   RO          308    .rodata.image_data_font_ubuntu_mono_24_0x4a  testmain.o
    0x0805ab94   0x0805ab94   0x00000030   Data   RO          309    .rodata.image_data_font_ubuntu_mono_24_0x4b  testmain.o
    0x0805abc4   0x0805abc4   0x00000030   Data   RO          310    .rodata.image_data_font_ubuntu_mono_24_0x4c  testmain.o
    0x0805abf4   0x0805abf4   0x00000030   Data   RO          311    .rodata.image_data_font_ubuntu_mono_24_0x4d  testmain.o
    0x0805ac24   0x0805ac24   0x00000030   Data   RO          312    .rodata.image_data_font_ubuntu_mono_24_0x4e  testmain.o
    0x0805ac54   0x0805ac54   0x00000030   Data   RO          313    .rodata.image_data_font_ubuntu_mono_24_0x4f  testmain.o
    0x0805ac84   0x0805ac84   0x00000030   Data   RO          314    .rodata.image_data_font_ubuntu_mono_24_0x50  testmain.o
    0x0805acb4   0x0805acb4   0x00000030   Data   RO          315    .rodata.image_data_font_ubuntu_mono_24_0x51  testmain.o
    0x0805ace4   0x0805ace4   0x00000030   Data   RO          316    .rodata.image_data_font_ubuntu_mono_24_0x52  testmain.o
    0x0805ad14   0x0805ad14   0x00000030   Data   RO          317    .rodata.image_data_font_ubuntu_mono_24_0x53  testmain.o
    0x0805ad44   0x0805ad44   0x00000030   Data   RO          318    .rodata.image_data_font_ubuntu_mono_24_0x54  testmain.o
    0x0805ad74   0x0805ad74   0x00000030   Data   RO          319    .rodata.image_data_font_ubuntu_mono_24_0x55  testmain.o
    0x0805ada4   0x0805ada4   0x00000030   Data   RO          320    .rodata.image_data_font_ubuntu_mono_24_0x56  testmain.o
    0x0805add4   0x0805add4   0x00000030   Data   RO          321    .rodata.image_data_font_ubuntu_mono_24_0x57  testmain.o
    0x0805ae04   0x0805ae04   0x00000030   Data   RO          322    .rodata.image_data_font_ubuntu_mono_24_0x58  testmain.o
    0x0805ae34   0x0805ae34   0x00000030   Data   RO          323    .rodata.image_data_font_ubuntu_mono_24_0x59  testmain.o
    0x0805ae64   0x0805ae64   0x00000030   Data   RO          324    .rodata.image_data_font_ubuntu_mono_24_0x5a  testmain.o
    0x0805ae94   0x0805ae94   0x00000030   Data   RO          325    .rodata.image_data_font_ubuntu_mono_24_0x5b  testmain.o
    0x0805aec4   0x0805aec4   0x00000030   Data   RO          326    .rodata.image_data_font_ubuntu_mono_24_0x5c  testmain.o
    0x0805aef4   0x0805aef4   0x00000030   Data   RO          327    .rodata.image_data_font_ubuntu_mono_24_0x5d  testmain.o
    0x0805af24   0x0805af24   0x00000030   Data   RO          328    .rodata.image_data_font_ubuntu_mono_24_0x5e  testmain.o
    0x0805af54   0x0805af54   0x00000030   Data   RO          329    .rodata.image_data_font_ubuntu_mono_24_0x5f  testmain.o
    0x0805af84   0x0805af84   0x00000030   Data   RO          330    .rodata.image_data_font_ubuntu_mono_24_0x60  testmain.o
    0x0805afb4   0x0805afb4   0x00000030   Data   RO          331    .rodata.image_data_font_ubuntu_mono_24_0x61  testmain.o
    0x0805afe4   0x0805afe4   0x00000030   Data   RO          332    .rodata.image_data_font_ubuntu_mono_24_0x62  testmain.o
    0x0805b014   0x0805b014   0x00000030   Data   RO          333    .rodata.image_data_font_ubuntu_mono_24_0x63  testmain.o
    0x0805b044   0x0805b044   0x00000030   Data   RO          334    .rodata.image_data_font_ubuntu_mono_24_0x64  testmain.o
    0x0805b074   0x0805b074   0x00000030   Data   RO          335    .rodata.image_data_font_ubuntu_mono_24_0x65  testmain.o
    0x0805b0a4   0x0805b0a4   0x00000030   Data   RO          336    .rodata.image_data_font_ubuntu_mono_24_0x66  testmain.o
    0x0805b0d4   0x0805b0d4   0x00000030   Data   RO          337    .rodata.image_data_font_ubuntu_mono_24_0x67  testmain.o
    0x0805b104   0x0805b104   0x00000030   Data   RO          338    .rodata.image_data_font_ubuntu_mono_24_0x68  testmain.o
    0x0805b134   0x0805b134   0x00000030   Data   RO          339    .rodata.image_data_font_ubuntu_mono_24_0x69  testmain.o
    0x0805b164   0x0805b164   0x00000030   Data   RO          340    .rodata.image_data_font_ubuntu_mono_24_0x6a  testmain.o
    0x0805b194   0x0805b194   0x00000030   Data   RO          341    .rodata.image_data_font_ubuntu_mono_24_0x6b  testmain.o
    0x0805b1c4   0x0805b1c4   0x00000030   Data   RO          342    .rodata.image_data_font_ubuntu_mono_24_0x6c  testmain.o
    0x0805b1f4   0x0805b1f4   0x00000030   Data   RO          343    .rodata.image_data_font_ubuntu_mono_24_0x6d  testmain.o
    0x0805b224   0x0805b224   0x00000030   Data   RO          344    .rodata.image_data_font_ubuntu_mono_24_0x6e  testmain.o
    0x0805b254   0x0805b254   0x00000030   Data   RO          345    .rodata.image_data_font_ubuntu_mono_24_0x6f  testmain.o
    0x0805b284   0x0805b284   0x00000030   Data   RO          346    .rodata.image_data_font_ubuntu_mono_24_0x70  testmain.o
    0x0805b2b4   0x0805b2b4   0x00000030   Data   RO          347    .rodata.image_data_font_ubuntu_mono_24_0x71  testmain.o
    0x0805b2e4   0x0805b2e4   0x00000030   Data   RO          348    .rodata.image_data_font_ubuntu_mono_24_0x72  testmain.o
    0x0805b314   0x0805b314   0x00000030   Data   RO          349    .rodata.image_data_font_ubuntu_mono_24_0x73  testmain.o
    0x0805b344   0x0805b344   0x00000030   Data   RO          350    .rodata.image_data_font_ubuntu_mono_24_0x74  testmain.o
    0x0805b374   0x0805b374   0x00000030   Data   RO          351    .rodata.image_data_font_ubuntu_mono_24_0x75  testmain.o
    0x0805b3a4   0x0805b3a4   0x00000030   Data   RO          352    .rodata.image_data_font_ubuntu_mono_24_0x76  testmain.o
    0x0805b3d4   0x0805b3d4   0x00000030   Data   RO          353    .rodata.image_data_font_ubuntu_mono_24_0x77  testmain.o
    0x0805b404   0x0805b404   0x00000030   Data   RO          354    .rodata.image_data_font_ubuntu_mono_24_0x78  testmain.o
    0x0805b434   0x0805b434   0x00000030   Data   RO          355    .rodata.image_data_font_ubuntu_mono_24_0x79  testmain.o
    0x0805b464   0x0805b464   0x00000030   Data   RO          356    .rodata.image_data_font_ubuntu_mono_24_0x7a  testmain.o
    0x0805b494   0x0805b494   0x00000030   Data   RO          357    .rodata.image_data_font_ubuntu_mono_24_0x7b  testmain.o
    0x0805b4c4   0x0805b4c4   0x00000030   Data   RO          358    .rodata.image_data_font_ubuntu_mono_24_0x7c  testmain.o
    0x0805b4f4   0x0805b4f4   0x00000030   Data   RO          359    .rodata.image_data_font_ubuntu_mono_24_0x7d  testmain.o
    0x0805b524   0x0805b524   0x00000030   Data   RO          360    .rodata.image_data_font_ubuntu_mono_24_0x7e  testmain.o
    0x0805b554   0x0805b554   0x000000b5   Data   RO          165    .rodata.str1.1      testmain.o
    0x0805b609   0x0805b609   0x00000015   Data   RO          494    .rodata.str1.1      adc.o
    0x0805b61e   0x0805b61e   0x00000017   Data   RO          598    .rodata.str1.1      retarget_io.o
    0x0805b635   0x0805b635   0x00000003   PAD
    0x0805b638   0x0805b638   0x00000020   Data   RO         1177    Region$$Table       anon$$obj.o
    0x0805b658   0x0805b658   0x0000001c   Data   RO          985    locale$$data        c_w.l(lc_numeric_c.o)
    0x0805b674   0x0805b674   0x00000110   Data   RO         1078    locale$$data        c_w.l(lc_ctype_c.o)


    Execution Region ER_RW (Exec base: 0x20000000, Load base: 0x0805b784, Size: 0x00000070, Max: 0xffffffff, ABSOLUTE)

    Exec Addr    Load Addr    Size         Type   Attr      Idx    E Section Name        Object

    0x20000000   0x0805b784   0x00000004   Data   RW          758    .data               c_w.l(stdio_streams.o)
    0x20000004   0x0805b788   0x00000004   Data   RW          759    .data               c_w.l(stdio_streams.o)
    0x20000008   0x0805b78c   0x00000004   Data   RW          760    .data               c_w.l(stdio_streams.o)
    0x2000000c   0x0805b790   0x00000001   Data   RW          135    .data.Expression_Transition  testmain.o
    0x2000000d   0x0805b791   0x00000001   PAD
    0x2000000e   0x0805b792   0x00000002   Data   RW           51    .data.ILI_TFTheight  ili9341.o
    0x20000010   0x0805b794   0x00000002   Data   RW           50    .data.ILI_TFTwidth  ili9341.o
    0x20000012   0x0805b796   0x00000002   PAD
    0x20000014   0x0805b798   0x00000010   Data   RW          127    .data.Mimic_Servo   testmain.o
    0x20000024   0x0805b7a8   0x00000004   Data   RW          148    .data.RTC_Data_ptr  testmain.o
    0x20000028   0x0805b7ac   0x00000004   Data   RW          141    .data.count         testmain.o
    0x2000002c   0x0805b7b0   0x00000001   Data   RW          518    .data.health        health_bar.o
    0x2000002d   0x0805b7b1   0x00000003   PAD
    0x20000030   0x0805b7b4   0x00000004   Data   RW          144    .data.menu          testmain.o
    0x20000034   0x0805b7b8   0x00000001   Data   RW          150    .data.menu_flag     testmain.o
    0x20000035   0x0805b7b9   0x00000003   PAD
    0x20000038   0x0805b7bc   0x0000002c   Data   RW          143    .data.num           testmain.o
    0x20000064   0x0805b7e8   0x00000001   Data   RW          130    .data.random_seconds  testmain.o
    0x20000065   0x0805b7e9   0x00000003   PAD
    0x20000068   0x0805b7ec   0x00000004   Data   RW          145    .data.state         testmain.o
    0x2000006c   0x0805b7f0   0x00000004   Data   RW          561    .data.tone_state    piezo.o


    Execution Region ER_ZI (Exec base: 0x20000070, Load base: 0x0805b7f4, Size: 0x000008b8, Max: 0xffffffff, ABSOLUTE)

    Exec Addr    Load Addr    Size         Type   Attr      Idx    E Section Name        Object

    0x20000070        -       0x000000e4   Zero   RW          636    .bss                c_w.l(rand.o)
    0x20000154        -       0x00000054   Zero   RW          755    .bss                c_w.l(stdio_streams.o)
    0x200001a8        -       0x00000054   Zero   RW          756    .bss                c_w.l(stdio_streams.o)
    0x200001fc        -       0x00000054   Zero   RW          757    .bss                c_w.l(stdio_streams.o)
    0x20000250        -       0x00000060   Zero   RW         1033    .bss                c_w.l(libspace.o)
    0x200002b0        -       0x00000001   Zero   RW          154    .bss.CNT_New        testmain.o
    0x200002b1        -       0x00000001   Zero   RW          153    .bss.CNT_Old        testmain.o
    0x200002b2        -       0x00000001   Zero   RW           53    .bss.ILI_Orientation  ili9341.o
    0x200002b3        -       0x00000001   Zero   RW          160    .bss.RTC_Date       testmain.o
    0x200002b4        -       0x00000001   Zero   RW          159    .bss.RTC_Hour       testmain.o
    0x200002b5        -       0x00000001   Zero   RW          158    .bss.RTC_Minute     testmain.o
    0x200002b6        -       0x00000001   Zero   RW          161    .bss.RTC_Month      testmain.o
    0x200002b7        -       0x00000001   Zero   RW          157    .bss.RTC_Second     testmain.o
    0x200002b8        -       0x00000001   Zero   RW          162    .bss.RTC_Year       testmain.o
    0x200002b9        -       0x00000001   Zero   RW          147    .bss.RTC_data       testmain.o
    0x200002ba   0x0805b7f4   0x00000006   PAD
    0x200002c0        -       0x00000008   Zero   RW          156    .bss.Time_New       testmain.o
    0x200002c8        -       0x00000008   Zero   RW          155    .bss.Time_Old       testmain.o
    0x200002d0        -       0x00000004   Zero   RW          443    .bss.current        sonar.o
    0x200002d4        -       0x00000004   Zero   RW          151    .bss.distance       testmain.o
    0x200002d8        -       0x00000004   Zero   RW          152    .bss.health_ptr     testmain.o
    0x200002dc        -       0x00000004   Zero   RW          444    .bss.last           sonar.o
    0x200002e0        -       0x00000004   Zero   RW          140    .bss.lightLvl       testmain.o
    0x200002e4   0x0805b7f4   0x00000004   PAD
    0x200002e8        -       0x00000008   Zero   RW          562    .bss.milliseconds   piezo.o
    0x200002f0        -       0x00000004   Zero   RW          142    .bss.old_count      testmain.o
    0x200002f4   0x0805b7f4   0x00000004   PAD
    0x200002f8        -       0x00000008   Zero   RW          445    .bss.period         sonar.o
    0x20000300        -       0x00000001   Zero   RW          134    .bss.petFlag        testmain.o
    0x20000301   0x0805b7f4   0x00000003   PAD
    0x20000304        -       0x00000004   Zero   RW          137    .bss.pos            testmain.o
    0x20000308        -       0x00000004   Zero   RW          131    .bss.random_seconds_counter  testmain.o
    0x2000030c        -       0x00000001   Zero   RW          149    .bss.refresh_WDT    testmain.o
    0x2000030d        -       0x00000001   Zero   RW          481    .bss.servo          servo.o
    0x2000030e        -       0x00000001   Zero   RW          132    .bss.swPress        testmain.o
    0x2000030f        -       0x00000001   Zero   RW          128    .bss.test           testmain.o
    0x20000310        -       0x0000000e   Zero   RW          164    .bss.timeDate       testmain.o
    0x2000031e        -       0x00000001   Zero   RW          146    .bss.tmp            testmain.o
    0x2000031f        -       0x00000001   Zero   RW          129    .bss.tongue_wag     testmain.o
    0x20000320        -       0x00000001   Zero   RW          139    .bss.value          testmain.o
    0x20000321   0x0805b7f4   0x00000007   PAD
    0x20000328        -       0x00000200   Zero   RW          606    HEAP                startup_stm32f446xx.o
    0x20000528        -       0x00000400   Zero   RW          605    STACK               startup_stm32f446xx.o


==============================================================================

Image component sizes


      Code (inc. data)   RO Data    RW Data    ZI Data      Debug   Object Name

       390          8         21          0          0       2642   adc.o
       242          0          0          0          0       4749   hall.o
       948          0          0          1          0       5873   health_bar.o
       734          0          0          0          0       2724   i2c.o
      3430          4          0          4          1      10317   ili9341.o
      1032         20          0          4          8       6120   piezo.o
       682          0         46          0          0       3371   retarget_io.o
       352          0          0          0          0       5294   rotary_encoder.o
       804          0          0          0          1       6105   servo.o
       272          0          0          0          0       2337   sevenseg.o
       410          0          0          0         16       2489   sonar.o
       468          0          0          0          0       2737   spi.o
        64         26        452          0       1536        940   startup_stm32f446xx.o
       130          0          0          0          0       2601   stepper.o
        18          0          0          0          0       2784   system_stm32f4xx.o
      6132         34     346371         79         70      16917   testmain.o

    ----------------------------------------------------------------------
     16194         92     346928        100       1656      78000   Object Totals
         0          0         32          0          0          0   (incl. Generated)
        86          0          6         12         24          0   (incl. Padding)

    ----------------------------------------------------------------------

      Code (inc. data)   RO Data    RW Data    ZI Data      Debug   Library Member Name

         8          0          0          0          0         68   __main.o
       392          4         17          0          0         92   __printf_flags_ss_wp.o
        14          0          0          0          0         68   __printf_wp.o
         0          0          0          0          0          0   __rtentry.o
        12          0          0          0          0          0   __rtentry2.o
         6          0          0          0          0          0   __rtentry4.o
        52          8          0          0          0          0   __scatter.o
        26          0          0          0          0          0   __scatter_copy.o
        28          0          0          0          0          0   __scatter_zi.o
        72          0          0          0          0         96   _c16rtomb.o
         6          0          0          0          0          0   _printf_a.o
         6          0          0          0          0          0   _printf_c.o
        44          0          0          0          0        108   _printf_char.o
        48          6          0          0          0         96   _printf_char_common.o
        36          4          0          0          0         80   _printf_char_file.o
        40          0          0          0          0         68   _printf_charcount.o
         6          0          0          0          0          0   _printf_d.o
       120         16          0          0          0         92   _printf_dec.o
         6          0          0          0          0          0   _printf_e.o
         6          0          0          0          0          0   _printf_f.o
      1052          0          0          0          0        148   _printf_fp_dec.o
       764          8         38          0          0        100   _printf_fp_hex.o
       128         16          0          0          0         84   _printf_fp_infnan.o
         6          0          0          0          0          0   _printf_g.o
       148          4         40          0          0        160   _printf_hex_int_ll_ptr.o
         6          0          0          0          0          0   _printf_i.o
       178          0          0          0          0         88   _printf_intcommon.o
        10          0          0          0          0          0   _printf_l.o
         6          0          0          0          0          0   _printf_lc.o
        10          0          0          0          0          0   _printf_ll.o
         6          0          0          0          0          0   _printf_lld.o
         6          0          0          0          0          0   _printf_lli.o
         6          0          0          0          0          0   _printf_llo.o
         6          0          0          0          0          0   _printf_llu.o
         6          0          0          0          0          0   _printf_llx.o
       124         16          0          0          0         92   _printf_longlong_dec.o
         6          0          0          0          0          0   _printf_ls.o
         6          0          0          0          0          0   _printf_n.o
         6          0          0          0          0          0   _printf_o.o
       112          8          0          0          0        124   _printf_oct_int_ll.o
         6          0          0          0          0          0   _printf_p.o
        78          0          0          0          0        108   _printf_pad.o
         0          0          0          0          0          0   _printf_percent.o
         4          0          0          0          0          0   _printf_percent_end.o
         6          0          0          0          0          0   _printf_s.o
        82          0          0          0          0         80   _printf_str.o
        36          0          0          0          0         84   _printf_truncate.o
         6          0          0          0          0          0   _printf_u.o
        44          0          0          0          0        108   _printf_wchar.o
       188          6          8          0          0         92   _printf_wctomb.o
         6          0          0          0          0          0   _printf_x.o
         8          0          0          0          0         68   abs.o
       228          4        148          0          0         96   bigflt0.o
      1936        128          0          0          0        668   btod.o
        10          0          0          0          0         68   defsig_exit.o
        50          0          0          0          0         88   defsig_general.o
        80         58          0          0          0         76   defsig_rtmem_inner.o
        14          0          0          0          0         80   defsig_rtmem_outer.o
        52         38          0          0          0         76   defsig_rtred_inner.o
        14          0          0          0          0         80   defsig_rtred_outer.o
        18          0          0          0          0         80   exit.o
        76          0          0          0          0         88   fclose.o
         8          0          0          0          0         68   ferror.o
       482          0          0          0          0         92   flsbuf.o
       240          6          0          0          0        128   fopen.o
        28          0          0          0          0         68   fputc.o
       248          6          0          0          0         84   fseek.o
        66          0          0          0          0         76   ftell.o
        94          0          0          0          0         80   h1_alloc.o
        52          0          0          0          0         68   h1_extend.o
        78          0          0          0          0         80   h1_free.o
        14          0          0          0          0         84   h1_init.o
         6          0          0          0          0        152   heapauxi.o
         4          0          0          0          0        136   hguard.o
         0          0          0          0          0          0   indicate_semi.o
       138          0          0          0          0        168   init_alloc.o
       312         46          0          0          0        112   initio.o
        44         10        272          0          0         76   lc_ctype_c.o
        44         10         28          0          0         76   lc_numeric_c.o
         2          0          0          0          0          0   libinit.o
        50          0          0          0          0          0   libinit2.o
         2          0          0          0          0          0   libshutdown.o
         6          0          0          0          0          0   libshutdown2.o
         8          4          0          0         96         68   libspace.o
       138          0          0          0          0         80   lludiv10.o
         0          0          0          0          0          0   maybetermalloc1.o
        24          4          0          0          0         84   printf.o
       112         18          0          0        228        160   rand.o
        16          4          0          0          0         76   rt_ctype_table.o
         8          4          0          0          0         68   rt_errno_addr_intlibspace.o
         8          4          0          0          0         68   rt_heap_descriptor_intlibspace.o
         8          4          0          0          0         68   rt_locale_intlibspace.o
        78          0          0          0          0         80   rt_memclr_w.o
         2          0          0          0          0          0   rtexit.o
        10          0          0          0          0          0   rtexit2.o
        70          0          0          0          0         80   setvbuf.o
       264          6          0          0          0        160   stdio.o
         0          0          0         12        252          0   stdio_streams.o
       124          0          0          0          0         88   strcmpv7em.o
        62          0          0          0          0         76   strlen.o
        12          4          0          0          0         68   sys_exit.o
        74          0          0          0          0         80   sys_stackheap_outer.o
        14          0          0          0          0         76   sys_wrch.o
         2          0          0          0          0         68   use_no_semi.o
       812         16          0          0          0        392   daddsub_clz.o
        94          4          0          0          0        140   dfix.o
        46          0          0          0          0        116   dflt_clz.o
       340         12          0          0          0        152   dmul.o
       156          4          0          0          0        140   dnaninf.o
        12          0          0          0          0        116   dretinf.o
        26          0          0          0          0        116   fpinit.o
         4          0          0          0          0        116   printf1.o
         4          0          0          0          0        116   printf2.o
         0          0          0          0          0          0   usenofp.o
        48          0          0          0          0        124   fpclassify.o

    ----------------------------------------------------------------------
     10986        490        552         12        576       8028   Library Totals
        30          0          1          0          0          0   (incl. Padding)

    ----------------------------------------------------------------------

      Code (inc. data)   RO Data    RW Data    ZI Data      Debug   Library Name

      9414        454        551         12        576       6500   c_w.l
      1494         36          0          0          0       1404   fz_wm.l
        48          0          0          0          0        124   m_wm.l

    ----------------------------------------------------------------------
     10986        490        552         12        576       8028   Library Totals

    ----------------------------------------------------------------------

==============================================================================


      Code (inc. data)   RO Data    RW Data    ZI Data      Debug   

     27180        582     347480        112       2232      81208   Grand Totals
     27180        582     347480        112       2232      81208   ELF Image Totals
     27180        582     347480        112          0          0   ROM Totals

==============================================================================

    Total RO  Size (Code + RO Data)               374660 ( 365.88kB)
    Total RW  Size (RW Data + ZI Data)              2344 (   2.29kB)
    Total ROM Size (Code + RO Data + RW Data)     374772 ( 365.99kB)

==============================================================================

